---
triple:          'arm64-apple-darwin'
binary-path:     sdl_test
relocations:
  - { offset: 0x15DCC, size: 0x8, addend: 0x0, symName: __ZNSt3__16__math3powB8ne180100IiiLi0EEENS_9__promoteIT_T0_vE4typeES3_S4_, symObjAddr: 0xEF40, symBinAddr: 0x100012444, symSize: 0x44 }
  - { offset: 0x15E29, size: 0x8, addend: 0x0, symName: __ZNSt3__16__math4sqrtB8ne180100IiLi0EEEdT_, symObjAddr: 0x6C, symBinAddr: 0x100003570, symSize: 0x24 }
  - { offset: 0x15E64, size: 0x8, addend: 0x0, symName: __ZNSt3__16__math3powB8ne180100IiEEddd, symObjAddr: 0xEF84, symBinAddr: 0x100012488, symSize: 0x2C }
  - { offset: 0x1795F, size: 0x8, addend: 0x0, symName: __ZNSt3__124__put_character_sequenceB8ne180100IcNS_11char_traitsIcEEEERNS_13basic_ostreamIT_T0_EES7_PKS4_m, symObjAddr: 0x1736C, symBinAddr: 0x10001A870, symSize: 0x1EC }
  - { offset: 0x196FA, size: 0x8, addend: 0x0, symName: __ZNSt3__1lsB8ne180100INS_11char_traitsIcEEEERNS_13basic_ostreamIcT_EES6_PKc, symObjAddr: 0xA18, symBinAddr: 0x100003F1C, symSize: 0x48 }
  - { offset: 0x19740, size: 0x8, addend: 0x0, symName: __ZNSt3__14endlB8ne180100IcNS_11char_traitsIcEEEERNS_13basic_ostreamIT_T0_EES7_, symObjAddr: 0xA8C, symBinAddr: 0x100003F90, symSize: 0x58 }
  - { offset: 0x1A756, size: 0x8, addend: 0x0, symName: __ZNSt3__111make_sharedB8ne180100I11SoundPlayerJRS1_EvEENS_10shared_ptrIT_EEDpOT0_, symObjAddr: 0x1408, symBinAddr: 0x10000490C, symSize: 0x40 }
  - { offset: 0x1A799, size: 0x8, addend: 0x0, symName: __ZNSt3__111make_sharedB8ne180100I10SoundEventJR11SoundPlayerEvEENS_10shared_ptrIT_EEDpOT0_, symObjAddr: 0x17A4, symBinAddr: 0x100004CA8, symSize: 0x40 }
  - { offset: 0x1A9F8, size: 0x8, addend: 0x0, symName: __ZNSt3__111make_sharedB8ne180100I11RotateEventJRNS_10shared_ptrI6LayoutEEEvEENS2_IT_EEDpOT0_, symObjAddr: 0x18F0, symBinAddr: 0x100004DF4, symSize: 0x40 }
  - { offset: 0x1AE73, size: 0x8, addend: 0x0, symName: __ZNSt3__111make_sharedB8ne180100I6LayoutJEvEENS_10shared_ptrIT_EEDpOT0_, symObjAddr: 0x2058, symBinAddr: 0x10000555C, symSize: 0x38 }
  - { offset: 0x1AEA1, size: 0x8, addend: 0x0, symName: __ZNSt3__115allocate_sharedB8ne180100I6LayoutNS_9allocatorIS1_EEJEvEENS_10shared_ptrIT_EERKT0_DpOT1_, symObjAddr: 0x240C, symBinAddr: 0x100005910, symSize: 0x90 }
  - { offset: 0x1B204, size: 0x8, addend: 0x0, symName: __ZNSt3__117__libcpp_allocateB8ne180100Emm, symObjAddr: 0x2800, symBinAddr: 0x100005D04, symSize: 0x60 }
  - { offset: 0x1B25E, size: 0x8, addend: 0x0, symName: __ZNSt3__124__is_overaligned_for_newB8ne180100Em, symObjAddr: 0x2874, symBinAddr: 0x100005D78, symSize: 0x20 }
  - { offset: 0x1B28C, size: 0x8, addend: 0x0, symName: __ZNSt3__121__libcpp_operator_newB8ne180100IJmSt11align_val_tEEEPvDpT_, symObjAddr: 0x2894, symBinAddr: 0x100005D98, symSize: 0x2C }
  - { offset: 0x1B2D9, size: 0x8, addend: 0x0, symName: __ZNSt3__121__libcpp_operator_newB8ne180100IJmEEEPvDpT_, symObjAddr: 0x28C0, symBinAddr: 0x100005DC4, symSize: 0x24 }
  - { offset: 0x1B3F5, size: 0x8, addend: 0x0, symName: __ZNSt3__112__to_addressB8ne180100INS_10shared_ptrI6LayoutEEEEPT_S5_, symObjAddr: 0x354C, symBinAddr: 0x100006A50, symSize: 0x14 }
  - { offset: 0x1B42A, size: 0x8, addend: 0x0, symName: __ZNSt3__119__libcpp_deallocateB8ne180100EPvmm, symObjAddr: 0x35C8, symBinAddr: 0x100006ACC, symSize: 0x60 }
  - { offset: 0x1B48F, size: 0x8, addend: 0x0, symName: __ZNSt3__127__do_deallocate_handle_sizeB8ne180100IJSt11align_val_tEEEvPvmDpT_, symObjAddr: 0x3628, symBinAddr: 0x100006B2C, symSize: 0x30 }
  - { offset: 0x1B4E2, size: 0x8, addend: 0x0, symName: __ZNSt3__127__do_deallocate_handle_sizeB8ne180100IJEEEvPvmDpT_, symObjAddr: 0x3658, symBinAddr: 0x100006B5C, symSize: 0x28 }
  - { offset: 0x1B520, size: 0x8, addend: 0x0, symName: __ZNSt3__124__libcpp_operator_deleteB8ne180100IJPvSt11align_val_tEEEvDpT_, symObjAddr: 0x3680, symBinAddr: 0x100006B84, symSize: 0x2C }
  - { offset: 0x1B569, size: 0x8, addend: 0x0, symName: __ZNSt3__124__libcpp_operator_deleteB8ne180100IJPvEEEvDpT_, symObjAddr: 0x36AC, symBinAddr: 0x100006BB0, symSize: 0x24 }
  - { offset: 0x1B59E, size: 0x8, addend: 0x0, symName: __ZNSt3__112__to_addressB8ne180100INS_10shared_ptrI7ElementEEEEPT_S5_, symObjAddr: 0x3A1C, symBinAddr: 0x100006F20, symSize: 0x14 }
  - { offset: 0x1B606, size: 0x8, addend: 0x0, symName: __ZNSt3__112__to_addressB8ne180100INS_12basic_stringIcNS_11char_traitsIcEENS_9allocatorIcEEEEEEPT_S8_, symObjAddr: 0x4104, symBinAddr: 0x100007608, symSize: 0x14 }
  - { offset: 0x1B63B, size: 0x8, addend: 0x0, symName: __ZNSt3__17getlineB8ne180100IcNS_11char_traitsIcEENS_9allocatorIcEEEERNS_13basic_istreamIT_T0_EES9_RNS_12basic_stringIS6_S7_T1_EE, symObjAddr: 0x4360, symBinAddr: 0x100007864, symSize: 0x5C }
  - { offset: 0x1B693, size: 0x8, addend: 0x0, symName: __ZNSt3__1neB8ne180100IPcEEbRKNS_11__wrap_iterIT_EES6_, symObjAddr: 0x4488, symBinAddr: 0x10000798C, symSize: 0x34 }
  - { offset: 0x1B6D6, size: 0x8, addend: 0x0, symName: __ZNSt3__17getlineB8ne180100IcNS_11char_traitsIcEENS_9allocatorIcEEEERNS_13basic_istreamIT_T0_EES9_RNS_12basic_stringIS6_S7_T1_EES6_, symObjAddr: 0x5A6C, symBinAddr: 0x100008F70, symSize: 0x238 }
  - { offset: 0x1B9B3, size: 0x8, addend: 0x0, symName: __ZNSt3__19use_facetB8ne180100INS_5ctypeIcEEEERKT_RKNS_6localeE, symObjAddr: 0x6358, symBinAddr: 0x10000985C, symSize: 0x2C }
  - { offset: 0x1BE80, size: 0x8, addend: 0x0, symName: __ZNSt3__1eqB8ne180100IPcEEbRKNS_11__wrap_iterIT_EES6_, symObjAddr: 0x64E4, symBinAddr: 0x1000099E8, symSize: 0x48 }
  - { offset: 0x1BEC3, size: 0x8, addend: 0x0, symName: __ZNSt3__13maxB8ne180100ImEERKT_S3_S3_, symObjAddr: 0x6C50, symBinAddr: 0x10000A154, symSize: 0x2C }
  - { offset: 0x1BF06, size: 0x8, addend: 0x0, symName: __ZNSt3__13minB8ne180100ImEERKT_S3_S3_, symObjAddr: 0x6C7C, symBinAddr: 0x10000A180, symSize: 0x2C }
  - { offset: 0x1C133, size: 0x8, addend: 0x0, symName: __ZNSt3__13minB8ne180100ImNS_6__lessIvvEEEERKT_S5_S5_T0_, symObjAddr: 0x6D08, symBinAddr: 0x10000A20C, symSize: 0x54 }
  - { offset: 0x1C203, size: 0x8, addend: 0x0, symName: __ZNSt3__120__throw_length_errorB8ne180100EPKc, symObjAddr: 0x6DE8, symBinAddr: 0x10000A2EC, symSize: 0x64 }
  - { offset: 0x1C22B, size: 0x8, addend: 0x0, symName: __ZNSt3__13maxB8ne180100ImNS_6__lessIvvEEEERKT_S5_S5_T0_, symObjAddr: 0x6EC4, symBinAddr: 0x10000A3C8, symSize: 0x54 }
  - { offset: 0x1C285, size: 0x8, addend: 0x0, symName: __ZNSt3__119__allocate_at_leastB8ne180100INS_9allocatorINS_12basic_stringIcNS_11char_traitsIcEENS1_IcEEEEEEEENS_19__allocation_resultINS_16allocator_traitsIT_E7pointerEEERSA_m, symObjAddr: 0x7034, symBinAddr: 0x10000A538, symSize: 0x40 }
  - { offset: 0x1C2C8, size: 0x8, addend: 0x0, symName: __ZNSt3__142__uninitialized_allocator_move_if_noexceptB8ne180100INS_9allocatorINS_12basic_stringIcNS_11char_traitsIcEENS1_IcEEEEEENS_16reverse_iteratorIPS6_EESA_SA_EET2_RT_T0_T1_SB_, symObjAddr: 0x71EC, symBinAddr: 0x10000A6F0, symSize: 0x12C }
  - { offset: 0x1C368, size: 0x8, addend: 0x0, symName: __ZNSt3__14swapB8ne180100IPNS_12basic_stringIcNS_11char_traitsIcEENS_9allocatorIcEEEEEENS_9enable_ifIXaasr21is_move_constructibleIT_EE5valuesr18is_move_assignableIS9_EE5valueEvE4typeERS9_SC_, symObjAddr: 0x7364, symBinAddr: 0x10000A868, symSize: 0x3C }
  - { offset: 0x1C3B9, size: 0x8, addend: 0x0, symName: __ZNSt3__122__make_exception_guardB8ne180100INS_29_AllocatorDestroyRangeReverseINS_9allocatorINS_12basic_stringIcNS_11char_traitsIcEENS2_IcEEEEEENS_16reverse_iteratorIPS7_EEEEEENS_28__exception_guard_exceptionsIT_EESE_, symObjAddr: 0x73B4, symBinAddr: 0x10000A8B8, symSize: 0x4C }
  - { offset: 0x1C3EF, size: 0x8, addend: 0x0, symName: __ZNSt3__1neB8ne180100IPNS_12basic_stringIcNS_11char_traitsIcEENS_9allocatorIcEEEES7_EEbRKNS_16reverse_iteratorIT_EERKNS8_IT0_EE, symObjAddr: 0x7444, symBinAddr: 0x10000A948, symSize: 0x48 }
  - { offset: 0x1C43B, size: 0x8, addend: 0x0, symName: __ZNSt3__112__to_addressB8ne180100INS_16reverse_iteratorIPNS_12basic_stringIcNS_11char_traitsIcEENS_9allocatorIcEEEEEEvEEu7__decayIDTclsr19__to_address_helperIT_EE6__callclsr3stdE7declvalIRKSA_EEEEESC_, symObjAddr: 0x74C0, symBinAddr: 0x10000A9C4, symSize: 0x24 }
  - { offset: 0x1C49A, size: 0x8, addend: 0x0, symName: __ZNSt3__119__allocator_destroyB8ne180100INS_9allocatorINS_12basic_stringIcNS_11char_traitsIcEENS1_IcEEEEEENS_16reverse_iteratorINS8_IPS6_EEEESB_EEvRT_T0_T1_, symObjAddr: 0x78DC, symBinAddr: 0x10000ADE0, symSize: 0x70 }
  - { offset: 0x1C4FF, size: 0x8, addend: 0x0, symName: __ZNSt3__1neB8ne180100INS_16reverse_iteratorIPNS_12basic_stringIcNS_11char_traitsIcEENS_9allocatorIcEEEEEES9_EEbRKNS1_IT_EERKNS1_IT0_EE, symObjAddr: 0x7988, symBinAddr: 0x10000AE8C, symSize: 0x60 }
  - { offset: 0x1C54B, size: 0x8, addend: 0x0, symName: __ZNSt3__112__to_addressB8ne180100INS_16reverse_iteratorINS1_IPNS_12basic_stringIcNS_11char_traitsIcEENS_9allocatorIcEEEEEEEEvEEu7__decayIDTclsr19__to_address_helperIT_EE6__callclsr3stdE7declvalIRKSB_EEEEESD_, symObjAddr: 0x79E8, symBinAddr: 0x10000AEEC, symSize: 0x24 }
  - { offset: 0x1C773, size: 0x8, addend: 0x0, symName: __ZNSt3__1eqB8ne180100IcNS_11char_traitsIcEENS_9allocatorIcEEEEbRKNS_12basic_stringIT_T0_T1_EEPKS6_, symObjAddr: 0x7DA8, symBinAddr: 0x10000B2AC, symSize: 0xAC }
  - { offset: 0x1C7DA, size: 0x8, addend: 0x0, symName: __ZNSt3__111make_sharedB8ne180100I6LayoutJRS1_EvEENS_10shared_ptrIT_EEDpOT0_, symObjAddr: 0x82DC, symBinAddr: 0x10000B7E0, symSize: 0x40 }
  - { offset: 0x1CBBA, size: 0x8, addend: 0x0, symName: __ZNSt3__14swapB8ne180100IPPNS_10shared_ptrI6LayoutEEEENS_9enable_ifIXaasr21is_move_constructibleIT_EE5valuesr18is_move_assignableIS7_EE5valueEvE4typeERS7_SA_, symObjAddr: 0x9C80, symBinAddr: 0x10000D184, symSize: 0x3C }
  - { offset: 0x1CC0B, size: 0x8, addend: 0x0, symName: __ZNSt3__14moveB8ne180100IPPNS_10shared_ptrI6LayoutEES5_EET0_T_S7_S6_, symObjAddr: 0x9DB0, symBinAddr: 0x10000D2B4, symSize: 0x40 }
  - { offset: 0x1CC65, size: 0x8, addend: 0x0, symName: __ZNSt3__112__to_addressB8ne180100IPNS_10shared_ptrI6LayoutEEEEPT_S6_, symObjAddr: 0x9EB8, symBinAddr: 0x10000D3BC, symSize: 0x14 }
  - { offset: 0x1CC9A, size: 0x8, addend: 0x0, symName: __ZNSt3__16__moveB8ne180100INS_17_ClassicAlgPolicyEPPNS_10shared_ptrI6LayoutEES6_S6_EENS_4pairIT0_T2_EES8_T1_S9_, symObjAddr: 0x9ECC, symBinAddr: 0x10000D3D0, symSize: 0x44 }
  - { offset: 0x1CD06, size: 0x8, addend: 0x0, symName: __ZNSt3__123__dispatch_copy_or_moveB8ne180100INS_17_ClassicAlgPolicyENS_11__move_loopIS1_EENS_14__move_trivialEPPNS_10shared_ptrI6LayoutEES9_S9_EENS_4pairIT2_T4_EESB_T3_SC_, symObjAddr: 0x9F10, symBinAddr: 0x10000D414, symSize: 0x44 }
  - { offset: 0x1CD84, size: 0x8, addend: 0x0, symName: __ZNSt3__121__unwrap_and_dispatchB8ne180100INS_10__overloadINS_11__move_loopINS_17_ClassicAlgPolicyEEENS_14__move_trivialEEEPPNS_10shared_ptrI6LayoutEESB_SB_Li0EEENS_4pairIT0_T2_EESD_T1_SE_, symObjAddr: 0x9F54, symBinAddr: 0x10000D458, symSize: 0xB4 }
  - { offset: 0x1CE12, size: 0x8, addend: 0x0, symName: __ZNSt3__114__unwrap_rangeB8ne180100IPPNS_10shared_ptrI6LayoutEES5_EENS_4pairIT0_S7_EET_S9_, symObjAddr: 0xA008, symBinAddr: 0x10000D50C, symSize: 0x60 }
  - { offset: 0x1D012, size: 0x8, addend: 0x0, symName: __ZNSt3__113__unwrap_iterB8ne180100IPPNS_10shared_ptrI6LayoutEENS_18__unwrap_iter_implIS5_Lb1EEELi0EEEDTclsrT0_8__unwrapclsr3stdE7declvalIT_EEEES9_, symObjAddr: 0xA0B0, symBinAddr: 0x10000D5B4, symSize: 0x24 }
  - { offset: 0x1D056, size: 0x8, addend: 0x0, symName: __ZNSt3__19make_pairB8ne180100IPPNS_10shared_ptrI6LayoutEES5_EENS_4pairINS_18__unwrap_ref_decayIT_E4typeENS7_IT0_E4typeEEEOS8_OSB_, symObjAddr: 0xA0D4, symBinAddr: 0x10000D5D8, symSize: 0x38 }
  - { offset: 0x1D0A5, size: 0x8, addend: 0x0, symName: __ZNSt3__114__rewrap_rangeB8ne180100IPPNS_10shared_ptrI6LayoutEES5_EET_S6_T0_, symObjAddr: 0xA10C, symBinAddr: 0x10000D610, symSize: 0x2C }
  - { offset: 0x1D0F1, size: 0x8, addend: 0x0, symName: __ZNSt3__113__rewrap_iterB8ne180100IPPNS_10shared_ptrI6LayoutEES5_NS_18__unwrap_iter_implIS5_Lb1EEEEET_S8_T0_, symObjAddr: 0xA138, symBinAddr: 0x10000D63C, symSize: 0x3C }
  - { offset: 0x1D146, size: 0x8, addend: 0x0, symName: __ZNSt3__119__copy_trivial_implB8ne180100IPNS_10shared_ptrI6LayoutEES4_EENS_4pairIPT_PT0_EES7_S7_S9_, symObjAddr: 0xA174, symBinAddr: 0x10000D678, symSize: 0x80 }
  - { offset: 0x1D1AE, size: 0x8, addend: 0x0, symName: __ZNSt3__119__constexpr_memmoveB8ne180100IPNS_10shared_ptrI6LayoutEES4_Li0EEEPT_S6_PT0_NS_15__element_countE, symObjAddr: 0xA1F4, symBinAddr: 0x10000D6F8, symSize: 0x64 }
  - { offset: 0x1D21C, size: 0x8, addend: 0x0, symName: __ZNSt3__19make_pairB8ne180100IRPPNS_10shared_ptrI6LayoutEES5_EENS_4pairINS_18__unwrap_ref_decayIT_E4typeENS8_IT0_E4typeEEEOS9_OSC_, symObjAddr: 0xA258, symBinAddr: 0x10000D75C, symSize: 0x38 }
  - { offset: 0x1D2BE, size: 0x8, addend: 0x0, symName: __ZNSt3__18distanceB8ne180100INS_13move_iteratorIPPNS_10shared_ptrI6LayoutEEEEEENS_15iterator_traitsIT_E15difference_typeES9_S9_, symObjAddr: 0xA4C0, symBinAddr: 0x10000D9C4, symSize: 0x3C }
  - { offset: 0x1D301, size: 0x8, addend: 0x0, symName: __ZNSt3__110__distanceB8ne180100INS_13move_iteratorIPPNS_10shared_ptrI6LayoutEEEEEENS_15iterator_traitsIT_E15difference_typeES9_S9_NS_26random_access_iterator_tagE, symObjAddr: 0xA6C4, symBinAddr: 0x10000DBC8, symSize: 0x30 }
  - { offset: 0x1D34E, size: 0x8, addend: 0x0, symName: __ZNSt3__1miB8ne180100IPPNS_10shared_ptrI6LayoutEES5_EEDTmicldtfp_4baseEcldtfp0_4baseEERKNS_13move_iteratorIT_EERKNS7_IT0_EE, symObjAddr: 0xA6F4, symBinAddr: 0x10000DBF8, symSize: 0x48 }
  - { offset: 0x1D39D, size: 0x8, addend: 0x0, symName: __ZNSt3__113move_backwardB8ne180100IPPNS_10shared_ptrI6LayoutEES5_EET0_T_S7_S6_, symObjAddr: 0xA88C, symBinAddr: 0x10000DD90, symSize: 0x40 }
  - { offset: 0x1D3F7, size: 0x8, addend: 0x0, symName: __ZNSt3__115__move_backwardB8ne180100INS_17_ClassicAlgPolicyEPPNS_10shared_ptrI6LayoutEES6_S6_EENS_4pairIT0_T2_EES8_T1_S9_, symObjAddr: 0xA8CC, symBinAddr: 0x10000DDD0, symSize: 0x44 }
  - { offset: 0x1D463, size: 0x8, addend: 0x0, symName: __ZNSt3__123__dispatch_copy_or_moveB8ne180100INS_17_ClassicAlgPolicyENS_20__move_backward_loopIS1_EENS_23__move_backward_trivialEPPNS_10shared_ptrI6LayoutEES9_S9_EENS_4pairIT2_T4_EESB_T3_SC_, symObjAddr: 0xA910, symBinAddr: 0x10000DE14, symSize: 0x44 }
  - { offset: 0x1D4E1, size: 0x8, addend: 0x0, symName: __ZNSt3__121__unwrap_and_dispatchB8ne180100INS_10__overloadINS_20__move_backward_loopINS_17_ClassicAlgPolicyEEENS_23__move_backward_trivialEEEPPNS_10shared_ptrI6LayoutEESB_SB_Li0EEENS_4pairIT0_T2_EESD_T1_SE_, symObjAddr: 0xA954, symBinAddr: 0x10000DE58, symSize: 0xB4 }
  - { offset: 0x1D5F1, size: 0x8, addend: 0x0, symName: __ZNSt3__128__copy_backward_trivial_implB8ne180100IPNS_10shared_ptrI6LayoutEES4_EENS_4pairIPT_PT0_EES7_S7_S9_, symObjAddr: 0xAA50, symBinAddr: 0x10000DF54, symSize: 0x90 }
  - { offset: 0x1D659, size: 0x8, addend: 0x0, symName: __ZNSt3__19make_pairB8ne180100IRPPNS_10shared_ptrI6LayoutEES6_EENS_4pairINS_18__unwrap_ref_decayIT_E4typeENS8_IT0_E4typeEEEOS9_OSC_, symObjAddr: 0xAAE0, symBinAddr: 0x10000DFE4, symSize: 0x38 }
  - { offset: 0x1D6A8, size: 0x8, addend: 0x0, symName: __ZNSt3__119__allocate_at_leastB8ne180100INS_9allocatorIPNS_10shared_ptrI6LayoutEEEEEENS_19__allocation_resultINS_16allocator_traitsIT_E7pointerEEERS9_m, symObjAddr: 0xACD0, symBinAddr: 0x10000E1D4, symSize: 0x40 }
  - { offset: 0x1D6EB, size: 0x8, addend: 0x0, symName: __ZNSt3__118__constexpr_strlenB8ne180100EPKc, symObjAddr: 0xB4E4, symBinAddr: 0x10000E9E8, symSize: 0x24 }
  - { offset: 0x1D717, size: 0x8, addend: 0x0, symName: __ZNSt3__119__allocate_at_leastB8ne180100INS_9allocatorINS_10shared_ptrI7ElementEEEEEENS_19__allocation_resultINS_16allocator_traitsIT_E7pointerEEERS8_m, symObjAddr: 0xBD6C, symBinAddr: 0x10000F270, symSize: 0x40 }
  - { offset: 0x1D75A, size: 0x8, addend: 0x0, symName: __ZNSt3__142__uninitialized_allocator_move_if_noexceptB8ne180100INS_9allocatorINS_10shared_ptrI7ElementEEEENS_16reverse_iteratorIPS4_EES8_S8_EET2_RT_T0_T1_S9_, symObjAddr: 0xBF20, symBinAddr: 0x10000F424, symSize: 0x12C }
  - { offset: 0x1D7FA, size: 0x8, addend: 0x0, symName: __ZNSt3__14swapB8ne180100IPNS_10shared_ptrI7ElementEEEENS_9enable_ifIXaasr21is_move_constructibleIT_EE5valuesr18is_move_assignableIS6_EE5valueEvE4typeERS6_S9_, symObjAddr: 0xC098, symBinAddr: 0x10000F59C, symSize: 0x3C }
  - { offset: 0x1D84B, size: 0x8, addend: 0x0, symName: __ZNSt3__122__make_exception_guardB8ne180100INS_29_AllocatorDestroyRangeReverseINS_9allocatorINS_10shared_ptrI7ElementEEEENS_16reverse_iteratorIPS5_EEEEEENS_28__exception_guard_exceptionsIT_EESC_, symObjAddr: 0xC0E8, symBinAddr: 0x10000F5EC, symSize: 0x4C }
  - { offset: 0x1D881, size: 0x8, addend: 0x0, symName: __ZNSt3__1neB8ne180100IPNS_10shared_ptrI7ElementEES4_EEbRKNS_16reverse_iteratorIT_EERKNS5_IT0_EE, symObjAddr: 0xC178, symBinAddr: 0x10000F67C, symSize: 0x48 }
  - { offset: 0x1D8CD, size: 0x8, addend: 0x0, symName: __ZNSt3__112__to_addressB8ne180100INS_16reverse_iteratorIPNS_10shared_ptrI7ElementEEEEvEEu7__decayIDTclsr19__to_address_helperIT_EE6__callclsr3stdE7declvalIRKS7_EEEEES9_, symObjAddr: 0xC1C0, symBinAddr: 0x10000F6C4, symSize: 0x24 }
  - { offset: 0x1D92C, size: 0x8, addend: 0x0, symName: __ZNSt3__119__allocator_destroyB8ne180100INS_9allocatorINS_10shared_ptrI7ElementEEEENS_16reverse_iteratorINS6_IPS4_EEEES9_EEvRT_T0_T1_, symObjAddr: 0xC470, symBinAddr: 0x10000F974, symSize: 0x70 }
  - { offset: 0x1D991, size: 0x8, addend: 0x0, symName: __ZNSt3__1neB8ne180100INS_16reverse_iteratorIPNS_10shared_ptrI7ElementEEEES6_EEbRKNS1_IT_EERKNS1_IT0_EE, symObjAddr: 0xC51C, symBinAddr: 0x10000FA20, symSize: 0x60 }
  - { offset: 0x1D9DD, size: 0x8, addend: 0x0, symName: __ZNSt3__112__to_addressB8ne180100INS_16reverse_iteratorINS1_IPNS_10shared_ptrI7ElementEEEEEEvEEu7__decayIDTclsr19__to_address_helperIT_EE6__callclsr3stdE7declvalIRKS8_EEEEESA_, symObjAddr: 0xC57C, symBinAddr: 0x10000FA80, symSize: 0x24 }
  - { offset: 0x1DA3C, size: 0x8, addend: 0x0, symName: __ZNSt3__111make_sharedB8ne180100I3BoxJR5Tvec2IiES4_R5Tvec3IiEEvEENS_10shared_ptrIT_EEDpOT0_, symObjAddr: 0xC8E4, symBinAddr: 0x10000FDE8, symSize: 0x50 }
  - { offset: 0x1DCC3, size: 0x8, addend: 0x0, symName: __ZNSt3__111make_sharedB8ne180100I4LineJR5Tvec2IiES4_R5Tvec3IiEEvEENS_10shared_ptrIT_EEDpOT0_, symObjAddr: 0xC994, symBinAddr: 0x10000FE98, symSize: 0x50 }
  - { offset: 0x1DF4A, size: 0x8, addend: 0x0, symName: __ZNSt3__115allocate_sharedB8ne180100I3BoxNS_9allocatorIS1_EEJR5Tvec2IiES6_R5Tvec3IiEEvEENS_10shared_ptrIT_EERKT0_DpOT1_, symObjAddr: 0xCA44, symBinAddr: 0x10000FF48, symSize: 0xA8 }
  - { offset: 0x1E3BC, size: 0x8, addend: 0x0, symName: __ZNSt3__14swapB8ne180100IiEENS_9enable_ifIXaasr21is_move_constructibleIT_EE5valuesr18is_move_assignableIS2_EE5valueEvE4typeERS2_S5_, symObjAddr: 0xDAB4, symBinAddr: 0x100010FB8, symSize: 0x3C }
  - { offset: 0x1E440, size: 0x8, addend: 0x0, symName: __ZNSt3__134__libcpp_atomic_refcount_decrementB8ne180100IlEET_RS1_, symObjAddr: 0xE0A4, symBinAddr: 0x1000115A8, symSize: 0x30 }
  - { offset: 0x1E475, size: 0x8, addend: 0x0, symName: __ZNSt3__115allocate_sharedB8ne180100I4LineNS_9allocatorIS1_EEJR5Tvec2IiES6_R5Tvec3IiEEvEENS_10shared_ptrIT_EERKT0_DpOT1_, symObjAddr: 0xE0D4, symBinAddr: 0x1000115D8, symSize: 0xA8 }
  - { offset: 0x1E91A, size: 0x8, addend: 0x0, symName: __ZNSt3__111make_sharedB8ne180100I5PointJR5Tvec2IiER5Tvec3IiEEvEENS_10shared_ptrIT_EEDpOT0_, symObjAddr: 0xF898, symBinAddr: 0x100012D9C, symSize: 0x48 }
  - { offset: 0x1EB8D, size: 0x8, addend: 0x0, symName: __ZNSt3__115allocate_sharedB8ne180100I5PointNS_9allocatorIS1_EEJR5Tvec2IiER5Tvec3IiEEvEENS_10shared_ptrIT_EERKT0_DpOT1_, symObjAddr: 0xF940, symBinAddr: 0x100012E44, symSize: 0xA0 }
  - { offset: 0x1F013, size: 0x8, addend: 0x0, symName: __ZNSt3__115allocate_sharedB8ne180100I6LayoutNS_9allocatorIS1_EEJRS1_EvEENS_10shared_ptrIT_EERKT0_DpOT1_, symObjAddr: 0x10908, symBinAddr: 0x100013E0C, symSize: 0x98 }
  - { offset: 0x1F08C, size: 0x8, addend: 0x0, symName: __ZNSt3__122__make_exception_guardB8ne180100INS_6vectorINS_10shared_ptrI7ElementEENS_9allocatorIS4_EEE16__destroy_vectorEEENS_28__exception_guard_exceptionsIT_EESA_, symObjAddr: 0x10E84, symBinAddr: 0x100014388, symSize: 0x40 }
  - { offset: 0x1F0C1, size: 0x8, addend: 0x0, symName: __ZNSt3__130__uninitialized_allocator_copyB8ne180100INS_9allocatorINS_10shared_ptrI7ElementEEEEPS4_S6_S6_EET2_RT_T0_T1_S7_, symObjAddr: 0x1109C, symBinAddr: 0x1000145A0, symSize: 0x80 }
  - { offset: 0x1F15E, size: 0x8, addend: 0x0, symName: __ZNSt3__114__unwrap_rangeB8ne180100IPNS_10shared_ptrI7ElementEES4_EENS_4pairIT0_S6_EET_S8_, symObjAddr: 0x1111C, symBinAddr: 0x100014620, symSize: 0x60 }
  - { offset: 0x1F1AA, size: 0x8, addend: 0x0, symName: __ZNSt3__135__uninitialized_allocator_copy_implB8ne180100INS_9allocatorINS_10shared_ptrI7ElementEEEEPS4_S6_S6_EET2_RT_T0_T1_S7_, symObjAddr: 0x1117C, symBinAddr: 0x100014680, symSize: 0xF4 }
  - { offset: 0x1F248, size: 0x8, addend: 0x0, symName: __ZNSt3__113__unwrap_iterB8ne180100IPNS_10shared_ptrI7ElementEENS_18__unwrap_iter_implIS4_Lb1EEELi0EEEDTclsrT0_8__unwrapclsr3stdE7declvalIT_EEEES8_, symObjAddr: 0x11270, symBinAddr: 0x100014774, symSize: 0x24 }
  - { offset: 0x1F28C, size: 0x8, addend: 0x0, symName: __ZNSt3__113__rewrap_iterB8ne180100IPNS_10shared_ptrI7ElementEES4_NS_18__unwrap_iter_implIS4_Lb1EEEEET_S7_T0_, symObjAddr: 0x11294, symBinAddr: 0x100014798, symSize: 0x3C }
  - { offset: 0x1F2E1, size: 0x8, addend: 0x0, symName: __ZNSt3__19make_pairB8ne180100IPNS_10shared_ptrI7ElementEES4_EENS_4pairINS_18__unwrap_ref_decayIT_E4typeENS6_IT0_E4typeEEEOS7_OSA_, symObjAddr: 0x112D0, symBinAddr: 0x1000147D4, symSize: 0x38 }
  - { offset: 0x1F404, size: 0x8, addend: 0x0, symName: __ZNSt3__122__make_exception_guardB8ne180100INS_29_AllocatorDestroyRangeReverseINS_9allocatorINS_10shared_ptrI7ElementEEEEPS5_EEEENS_28__exception_guard_exceptionsIT_EESA_, symObjAddr: 0x11378, symBinAddr: 0x10001487C, symSize: 0x4C }
  - { offset: 0x1F43A, size: 0x8, addend: 0x0, symName: __ZNSt3__119__allocator_destroyB8ne180100INS_9allocatorINS_10shared_ptrI7ElementEEEENS_16reverse_iteratorIPS4_EES8_EEvRT_T0_T1_, symObjAddr: 0x11608, symBinAddr: 0x100014B0C, symSize: 0x70 }
  - { offset: 0x1F4F0, size: 0x8, addend: 0x0, symName: __ZNSt3__122__make_exception_guardB8ne180100INS_6vectorINS_10shared_ptrI6LayoutEENS_9allocatorIS4_EEE16__destroy_vectorEEENS_28__exception_guard_exceptionsIT_EESA_, symObjAddr: 0x119B0, symBinAddr: 0x100014EB4, symSize: 0x40 }
  - { offset: 0x1F525, size: 0x8, addend: 0x0, symName: __ZNSt3__119__allocate_at_leastB8ne180100INS_9allocatorINS_10shared_ptrI6LayoutEEEEEENS_19__allocation_resultINS_16allocator_traitsIT_E7pointerEEERS8_m, symObjAddr: 0x11C44, symBinAddr: 0x100015148, symSize: 0x40 }
  - { offset: 0x1F568, size: 0x8, addend: 0x0, symName: __ZNSt3__130__uninitialized_allocator_copyB8ne180100INS_9allocatorINS_10shared_ptrI6LayoutEEEEPS4_S6_S6_EET2_RT_T0_T1_S7_, symObjAddr: 0x11D20, symBinAddr: 0x100015224, symSize: 0x80 }
  - { offset: 0x1F605, size: 0x8, addend: 0x0, symName: __ZNSt3__114__unwrap_rangeB8ne180100IPNS_10shared_ptrI6LayoutEES4_EENS_4pairIT0_S6_EET_S8_, symObjAddr: 0x11E10, symBinAddr: 0x100015314, symSize: 0x60 }
  - { offset: 0x1F651, size: 0x8, addend: 0x0, symName: __ZNSt3__135__uninitialized_allocator_copy_implB8ne180100INS_9allocatorINS_10shared_ptrI6LayoutEEEEPS4_S6_S6_EET2_RT_T0_T1_S7_, symObjAddr: 0x11E70, symBinAddr: 0x100015374, symSize: 0xF4 }
  - { offset: 0x1F6EF, size: 0x8, addend: 0x0, symName: __ZNSt3__113__unwrap_iterB8ne180100IPNS_10shared_ptrI6LayoutEENS_18__unwrap_iter_implIS4_Lb1EEELi0EEEDTclsrT0_8__unwrapclsr3stdE7declvalIT_EEEES8_, symObjAddr: 0x11F64, symBinAddr: 0x100015468, symSize: 0x24 }
  - { offset: 0x1F733, size: 0x8, addend: 0x0, symName: __ZNSt3__113__rewrap_iterB8ne180100IPNS_10shared_ptrI6LayoutEES4_NS_18__unwrap_iter_implIS4_Lb1EEEEET_S7_T0_, symObjAddr: 0x11F88, symBinAddr: 0x10001548C, symSize: 0x3C }
  - { offset: 0x1F788, size: 0x8, addend: 0x0, symName: __ZNSt3__19make_pairB8ne180100IPNS_10shared_ptrI6LayoutEES4_EENS_4pairINS_18__unwrap_ref_decayIT_E4typeENS6_IT0_E4typeEEEOS7_OSA_, symObjAddr: 0x11FC4, symBinAddr: 0x1000154C8, symSize: 0x38 }
  - { offset: 0x1F8AB, size: 0x8, addend: 0x0, symName: __ZNSt3__122__make_exception_guardB8ne180100INS_29_AllocatorDestroyRangeReverseINS_9allocatorINS_10shared_ptrI6LayoutEEEEPS5_EEEENS_28__exception_guard_exceptionsIT_EESA_, symObjAddr: 0x1206C, symBinAddr: 0x100015570, symSize: 0x4C }
  - { offset: 0x1F8E1, size: 0x8, addend: 0x0, symName: __ZNSt3__119__allocator_destroyB8ne180100INS_9allocatorINS_10shared_ptrI6LayoutEEEENS_16reverse_iteratorIPS4_EES8_EEvRT_T0_T1_, symObjAddr: 0x122FC, symBinAddr: 0x100015800, symSize: 0x70 }
  - { offset: 0x1F944, size: 0x8, addend: 0x0, symName: __ZNSt3__1neB8ne180100IPNS_10shared_ptrI6LayoutEES4_EEbRKNS_16reverse_iteratorIT_EERKNS5_IT0_EE, symObjAddr: 0x123A0, symBinAddr: 0x1000158A4, symSize: 0x48 }
  - { offset: 0x1F990, size: 0x8, addend: 0x0, symName: __ZNSt3__112__to_addressB8ne180100INS_16reverse_iteratorIPNS_10shared_ptrI6LayoutEEEEvEEu7__decayIDTclsr19__to_address_helperIT_EE6__callclsr3stdE7declvalIRKS7_EEEEES9_, symObjAddr: 0x123E8, symBinAddr: 0x1000158EC, symSize: 0x24 }
  - { offset: 0x1FA42, size: 0x8, addend: 0x0, symName: __ZNSt3__142__uninitialized_allocator_move_if_noexceptB8ne180100INS_9allocatorINS_10shared_ptrI6LayoutEEEENS_16reverse_iteratorIPS4_EES8_S8_EET2_RT_T0_T1_S9_, symObjAddr: 0x12BA4, symBinAddr: 0x1000160A8, symSize: 0x11C }
  - { offset: 0x1FAE2, size: 0x8, addend: 0x0, symName: __ZNSt3__14swapB8ne180100IPNS_10shared_ptrI6LayoutEEEENS_9enable_ifIXaasr21is_move_constructibleIT_EE5valuesr18is_move_assignableIS6_EE5valueEvE4typeERS6_S9_, symObjAddr: 0x12CC0, symBinAddr: 0x1000161C4, symSize: 0x3C }
  - { offset: 0x1FB33, size: 0x8, addend: 0x0, symName: __ZNSt3__122__make_exception_guardB8ne180100INS_29_AllocatorDestroyRangeReverseINS_9allocatorINS_10shared_ptrI6LayoutEEEENS_16reverse_iteratorIPS5_EEEEEENS_28__exception_guard_exceptionsIT_EESC_, symObjAddr: 0x12CFC, symBinAddr: 0x100016200, symSize: 0x4C }
  - { offset: 0x1FB69, size: 0x8, addend: 0x0, symName: __ZNSt3__119__allocator_destroyB8ne180100INS_9allocatorINS_10shared_ptrI6LayoutEEEENS_16reverse_iteratorINS6_IPS4_EEEES9_EEvRT_T0_T1_, symObjAddr: 0x1304C, symBinAddr: 0x100016550, symSize: 0x70 }
  - { offset: 0x1FBCE, size: 0x8, addend: 0x0, symName: __ZNSt3__1neB8ne180100INS_16reverse_iteratorIPNS_10shared_ptrI6LayoutEEEES6_EEbRKNS1_IT_EERKNS1_IT0_EE, symObjAddr: 0x130F8, symBinAddr: 0x1000165FC, symSize: 0x60 }
  - { offset: 0x1FC1A, size: 0x8, addend: 0x0, symName: __ZNSt3__112__to_addressB8ne180100INS_16reverse_iteratorINS1_IPNS_10shared_ptrI6LayoutEEEEEEvEEu7__decayIDTclsr19__to_address_helperIT_EE6__callclsr3stdE7declvalIRKS8_EEEEESA_, symObjAddr: 0x13158, symBinAddr: 0x10001665C, symSize: 0x24 }
  - { offset: 0x1FC79, size: 0x8, addend: 0x0, symName: __ZNSt3__1neB8ne180100ERKNS_16__deque_iteratorINS_10shared_ptrI6LayoutEEPS3_RS3_PS4_lLl256EEES9_, symObjAddr: 0x13B18, symBinAddr: 0x10001701C, symSize: 0x34 }
  - { offset: 0x1FCB6, size: 0x8, addend: 0x0, symName: __ZNSt3__1eqB8ne180100ERKNS_16__deque_iteratorINS_10shared_ptrI6LayoutEEPS3_RS3_PS4_lLl256EEES9_, symObjAddr: 0x13BBC, symBinAddr: 0x1000170C0, symSize: 0x30 }
  - { offset: 0x1FCF3, size: 0x8, addend: 0x0, symName: __ZNSt3__1neB8ne180100IPNS_10shared_ptrI7ElementEEEEbRKNS_11__wrap_iterIT_EES9_, symObjAddr: 0x13E20, symBinAddr: 0x100017324, symSize: 0x34 }
  - { offset: 0x1FD36, size: 0x8, addend: 0x0, symName: __ZNSt3__1neB8ne180100IPNS_10shared_ptrI6LayoutEEEEbRKNS_11__wrap_iterIT_EES9_, symObjAddr: 0x13F04, symBinAddr: 0x100017408, symSize: 0x34 }
  - { offset: 0x1FD79, size: 0x8, addend: 0x0, symName: __ZNSt3__1eqB8ne180100IPNS_10shared_ptrI7ElementEEEEbRKNS_11__wrap_iterIT_EES9_, symObjAddr: 0x13FF4, symBinAddr: 0x1000174F8, symSize: 0x48 }
  - { offset: 0x1FDBC, size: 0x8, addend: 0x0, symName: __ZNSt3__1eqB8ne180100IPNS_10shared_ptrI6LayoutEEEEbRKNS_11__wrap_iterIT_EES9_, symObjAddr: 0x140D8, symBinAddr: 0x1000175DC, symSize: 0x48 }
  - { offset: 0x1FDFF, size: 0x8, addend: 0x0, symName: __ZNSt3__1eqB8ne180100INS_9allocatorIcEEEEbRKNS_12basic_stringIcNS_11char_traitsIcEET_EES9_, symObjAddr: 0x14490, symBinAddr: 0x100017994, symSize: 0x148 }
  - { offset: 0x1FE72, size: 0x8, addend: 0x0, symName: __ZNSt3__1neB8ne180100I6LayoutEEbRKNS_10shared_ptrIT_EEDn, symObjAddr: 0x145D8, symBinAddr: 0x100017ADC, symSize: 0x2C }
  - { offset: 0x1FEB4, size: 0x8, addend: 0x0, symName: __ZNSt3__112__to_addressB8ne180100IKcEEPT_S3_, symObjAddr: 0x14694, symBinAddr: 0x100017B98, symSize: 0x14 }
  - { offset: 0x1FF1C, size: 0x8, addend: 0x0, symName: __ZNSt3__111make_sharedB8ne180100I8TriangleJR5Tvec2IiES4_S4_R5Tvec3IiEEvEENS_10shared_ptrIT_EEDpOT0_, symObjAddr: 0x147C8, symBinAddr: 0x100017CCC, symSize: 0x58 }
  - { offset: 0x201B7, size: 0x8, addend: 0x0, symName: __ZNSt3__115allocate_sharedB8ne180100I8TriangleNS_9allocatorIS1_EEJR5Tvec2IiES6_S6_R5Tvec3IiEEvEENS_10shared_ptrIT_EERKT0_DpOT1_, symObjAddr: 0x14880, symBinAddr: 0x100017D84, symSize: 0xB0 }
  - { offset: 0x20646, size: 0x8, addend: 0x0, symName: __ZNSt3__13minB8ne180100IiEET_St16initializer_listIS1_E, symObjAddr: 0x158BC, symBinAddr: 0x100018DC0, symSize: 0x50 }
  - { offset: 0x2067B, size: 0x8, addend: 0x0, symName: __ZNSt3__13maxB8ne180100IiEET_St16initializer_listIS1_E, symObjAddr: 0x1590C, symBinAddr: 0x100018E10, symSize: 0x50 }
  - { offset: 0x206B0, size: 0x8, addend: 0x0, symName: __ZNSt3__13maxB8ne180100IiEERKT_S3_S3_, symObjAddr: 0x1595C, symBinAddr: 0x100018E60, symSize: 0x2C }
  - { offset: 0x206F3, size: 0x8, addend: 0x0, symName: __ZNSt3__13minB8ne180100IiEERKT_S3_S3_, symObjAddr: 0x15988, symBinAddr: 0x100018E8C, symSize: 0x2C }
  - { offset: 0x20736, size: 0x8, addend: 0x0, symName: __ZNSt3__111min_elementB8ne180100IPKiNS_6__lessIvvEEEET_S5_S5_T0_, symObjAddr: 0x15BA0, symBinAddr: 0x1000190A4, symSize: 0x30 }
  - { offset: 0x20790, size: 0x8, addend: 0x0, symName: __ZNSt3__113__min_elementB8ne180100IRNS_6__lessIvvEEPKiS5_EET0_S6_T1_T_, symObjAddr: 0x15C08, symBinAddr: 0x10001910C, symSize: 0x3C }
  - { offset: 0x20801, size: 0x8, addend: 0x0, symName: __ZNSt3__113__min_elementB8ne180100IRNS_6__lessIvvEEPKiS5_NS_10__identityEEET0_S7_T1_T_RT2_, symObjAddr: 0x15C44, symBinAddr: 0x100019148, symSize: 0xD8 }
  - { offset: 0x20889, size: 0x8, addend: 0x0, symName: __ZNSt3__18__invokeB8ne180100IRNS_6__lessIvvEEJRKiS5_EEEDTclclsr3stdE7declvalIT_EEspclsr3stdE7declvalIT0_EEEEOS6_DpOS7_, symObjAddr: 0x15D1C, symBinAddr: 0x100019220, symSize: 0x38 }
  - { offset: 0x208EE, size: 0x8, addend: 0x0, symName: __ZNSt3__18__invokeB8ne180100IRNS_10__identityEJRKiEEEDTclclsr3stdE7declvalIT_EEspclsr3stdE7declvalIT0_EEEEOS5_DpOS6_, symObjAddr: 0x15D54, symBinAddr: 0x100019258, symSize: 0x2C }
  - { offset: 0x2096C, size: 0x8, addend: 0x0, symName: __ZNSt3__111max_elementB8ne180100IPKiNS_6__lessIvvEEEET_S5_S5_T0_, symObjAddr: 0x15DCC, symBinAddr: 0x1000192D0, symSize: 0x30 }
  - { offset: 0x209C6, size: 0x8, addend: 0x0, symName: __ZNSt3__113__max_elementB8ne180100IRNS_6__lessIvvEEPKiEET0_S6_S6_T_, symObjAddr: 0x15DFC, symBinAddr: 0x100019300, symSize: 0x9C }
  - { offset: 0x20A3C, size: 0x8, addend: 0x0, symName: __ZNSt3__13maxB8ne180100IiNS_6__lessIvvEEEERKT_S5_S5_T0_, symObjAddr: 0x15E98, symBinAddr: 0x10001939C, symSize: 0x54 }
  - { offset: 0x20A96, size: 0x8, addend: 0x0, symName: __ZNSt3__13minB8ne180100IiNS_6__lessIvvEEEERKT_S5_S5_T0_, symObjAddr: 0x15EEC, symBinAddr: 0x1000193F0, symSize: 0x54 }
  - { offset: 0x20B23, size: 0x8, addend: 0x0, symName: __ZNSt3__111make_sharedB8ne180100I9ShowEventJRNS_10shared_ptrI6LayoutEEEvEENS2_IT_EEDpOT0_, symObjAddr: 0x16550, symBinAddr: 0x100019A54, symSize: 0x40 }
  - { offset: 0x20D82, size: 0x8, addend: 0x0, symName: __ZNSt3__115allocate_sharedB8ne180100I9ShowEventNS_9allocatorIS1_EEJRNS_10shared_ptrI6LayoutEEEvEENS4_IT_EERKT0_DpOT1_, symObjAddr: 0x165F0, symBinAddr: 0x100019AF4, symSize: 0x98 }
  - { offset: 0x211EA, size: 0x8, addend: 0x0, symName: __ZNSt3__116__pad_and_outputB8ne180100IcNS_11char_traitsIcEEEENS_19ostreambuf_iteratorIT_T0_EES6_PKS4_S8_S8_RNS_8ios_baseES4_, symObjAddr: 0x17574, symBinAddr: 0x10001AA78, symSize: 0x240 }
  - { offset: 0x212B9, size: 0x8, addend: 0x0, symName: __ZNSt3__112__to_addressB8ne180100IcEEPT_S2_, symObjAddr: 0x17A44, symBinAddr: 0x10001AF48, symSize: 0x14 }
  - { offset: 0x212EE, size: 0x8, addend: 0x0, symName: __ZNSt3__134__libcpp_atomic_refcount_incrementB8ne180100IlEET_RS1_, symObjAddr: 0x17B68, symBinAddr: 0x10001B06C, symSize: 0x30 }
  - { offset: 0x21323, size: 0x8, addend: 0x0, symName: __ZNSt3__14swapB8ne180100IP6LayoutEENS_9enable_ifIXaasr21is_move_constructibleIT_EE5valuesr18is_move_assignableIS4_EE5valueEvE4typeERS4_S7_, symObjAddr: 0x17C30, symBinAddr: 0x10001B134, symSize: 0x3C }
  - { offset: 0x21374, size: 0x8, addend: 0x0, symName: __ZNSt3__14swapB8ne180100IPNS_19__shared_weak_countEEENS_9enable_ifIXaasr21is_move_constructibleIT_EE5valuesr18is_move_assignableIS4_EE5valueEvE4typeERS4_S7_, symObjAddr: 0x17C6C, symBinAddr: 0x10001B170, symSize: 0x3C }
  - { offset: 0x213C5, size: 0x8, addend: 0x0, symName: __ZNSt3__115allocate_sharedB8ne180100I11SoundPlayerNS_9allocatorIS1_EEJRS1_EvEENS_10shared_ptrIT_EERKT0_DpOT1_, symObjAddr: 0x17FA0, symBinAddr: 0x10001B4A4, symSize: 0x98 }
  - { offset: 0x2182D, size: 0x8, addend: 0x0, symName: __ZNSt3__1neB8ne180100ERKNS_16__deque_iteratorINS_10shared_ptrI5EventEEPS3_RS3_PS4_lLl256EEES9_, symObjAddr: 0x19134, symBinAddr: 0x10001C638, symSize: 0x34 }
  - { offset: 0x2186A, size: 0x8, addend: 0x0, symName: __ZNSt3__1eqB8ne180100ERKNS_16__deque_iteratorINS_10shared_ptrI5EventEEPS3_RS3_PS4_lLl256EEES9_, symObjAddr: 0x193B4, symBinAddr: 0x10001C8B8, symSize: 0x30 }
  - { offset: 0x218A7, size: 0x8, addend: 0x0, symName: __ZNSt3__112__to_addressB8ne180100IPNS_10shared_ptrI5EventEEEEPT_S6_, symObjAddr: 0x1971C, symBinAddr: 0x10001CC20, symSize: 0x14 }
  - { offset: 0x21D2D, size: 0x8, addend: 0x0, symName: __ZNSt3__14swapB8ne180100IPPNS_10shared_ptrI5EventEEEENS_9enable_ifIXaasr21is_move_constructibleIT_EE5valuesr18is_move_assignableIS7_EE5valueEvE4typeERS7_SA_, symObjAddr: 0x1AA54, symBinAddr: 0x10001DF58, symSize: 0x3C }
  - { offset: 0x21D7E, size: 0x8, addend: 0x0, symName: __ZNSt3__14moveB8ne180100IPPNS_10shared_ptrI5EventEES5_EET0_T_S7_S6_, symObjAddr: 0x1AB38, symBinAddr: 0x10001E03C, symSize: 0x40 }
  - { offset: 0x21DD8, size: 0x8, addend: 0x0, symName: __ZNSt3__16__moveB8ne180100INS_17_ClassicAlgPolicyEPPNS_10shared_ptrI5EventEES6_S6_EENS_4pairIT0_T2_EES8_T1_S9_, symObjAddr: 0x1AC40, symBinAddr: 0x10001E144, symSize: 0x44 }
  - { offset: 0x21E44, size: 0x8, addend: 0x0, symName: __ZNSt3__123__dispatch_copy_or_moveB8ne180100INS_17_ClassicAlgPolicyENS_11__move_loopIS1_EENS_14__move_trivialEPPNS_10shared_ptrI5EventEES9_S9_EENS_4pairIT2_T4_EESB_T3_SC_, symObjAddr: 0x1AC84, symBinAddr: 0x10001E188, symSize: 0x44 }
  - { offset: 0x21EC2, size: 0x8, addend: 0x0, symName: __ZNSt3__121__unwrap_and_dispatchB8ne180100INS_10__overloadINS_11__move_loopINS_17_ClassicAlgPolicyEEENS_14__move_trivialEEEPPNS_10shared_ptrI5EventEESB_SB_Li0EEENS_4pairIT0_T2_EESD_T1_SE_, symObjAddr: 0x1ACC8, symBinAddr: 0x10001E1CC, symSize: 0xB4 }
  - { offset: 0x21F50, size: 0x8, addend: 0x0, symName: __ZNSt3__114__unwrap_rangeB8ne180100IPPNS_10shared_ptrI5EventEES5_EENS_4pairIT0_S7_EET_S9_, symObjAddr: 0x1AD7C, symBinAddr: 0x10001E280, symSize: 0x60 }
  - { offset: 0x220CE, size: 0x8, addend: 0x0, symName: __ZNSt3__113__unwrap_iterB8ne180100IPPNS_10shared_ptrI5EventEENS_18__unwrap_iter_implIS5_Lb1EEELi0EEEDTclsrT0_8__unwrapclsr3stdE7declvalIT_EEEES9_, symObjAddr: 0x1AE24, symBinAddr: 0x10001E328, symSize: 0x24 }
  - { offset: 0x22112, size: 0x8, addend: 0x0, symName: __ZNSt3__19make_pairB8ne180100IPPNS_10shared_ptrI5EventEES5_EENS_4pairINS_18__unwrap_ref_decayIT_E4typeENS7_IT0_E4typeEEEOS8_OSB_, symObjAddr: 0x1AE48, symBinAddr: 0x10001E34C, symSize: 0x38 }
  - { offset: 0x22161, size: 0x8, addend: 0x0, symName: __ZNSt3__114__rewrap_rangeB8ne180100IPPNS_10shared_ptrI5EventEES5_EET_S6_T0_, symObjAddr: 0x1AE80, symBinAddr: 0x10001E384, symSize: 0x2C }
  - { offset: 0x221AD, size: 0x8, addend: 0x0, symName: __ZNSt3__113__rewrap_iterB8ne180100IPPNS_10shared_ptrI5EventEES5_NS_18__unwrap_iter_implIS5_Lb1EEEEET_S8_T0_, symObjAddr: 0x1AEAC, symBinAddr: 0x10001E3B0, symSize: 0x3C }
  - { offset: 0x22202, size: 0x8, addend: 0x0, symName: __ZNSt3__119__copy_trivial_implB8ne180100IPNS_10shared_ptrI5EventEES4_EENS_4pairIPT_PT0_EES7_S7_S9_, symObjAddr: 0x1AEE8, symBinAddr: 0x10001E3EC, symSize: 0x80 }
  - { offset: 0x2226A, size: 0x8, addend: 0x0, symName: __ZNSt3__119__constexpr_memmoveB8ne180100IPNS_10shared_ptrI5EventEES4_Li0EEEPT_S6_PT0_NS_15__element_countE, symObjAddr: 0x1AF68, symBinAddr: 0x10001E46C, symSize: 0x64 }
  - { offset: 0x222D8, size: 0x8, addend: 0x0, symName: __ZNSt3__19make_pairB8ne180100IRPPNS_10shared_ptrI5EventEES5_EENS_4pairINS_18__unwrap_ref_decayIT_E4typeENS8_IT0_E4typeEEEOS9_OSC_, symObjAddr: 0x1AFCC, symBinAddr: 0x10001E4D0, symSize: 0x38 }
  - { offset: 0x2237A, size: 0x8, addend: 0x0, symName: __ZNSt3__18distanceB8ne180100INS_13move_iteratorIPPNS_10shared_ptrI5EventEEEEEENS_15iterator_traitsIT_E15difference_typeES9_S9_, symObjAddr: 0x1B234, symBinAddr: 0x10001E738, symSize: 0x3C }
  - { offset: 0x223BD, size: 0x8, addend: 0x0, symName: __ZNSt3__110__distanceB8ne180100INS_13move_iteratorIPPNS_10shared_ptrI5EventEEEEEENS_15iterator_traitsIT_E15difference_typeES9_S9_NS_26random_access_iterator_tagE, symObjAddr: 0x1B438, symBinAddr: 0x10001E93C, symSize: 0x30 }
  - { offset: 0x2240A, size: 0x8, addend: 0x0, symName: __ZNSt3__1miB8ne180100IPPNS_10shared_ptrI5EventEES5_EEDTmicldtfp_4baseEcldtfp0_4baseEERKNS_13move_iteratorIT_EERKNS7_IT0_EE, symObjAddr: 0x1B468, symBinAddr: 0x10001E96C, symSize: 0x48 }
  - { offset: 0x22459, size: 0x8, addend: 0x0, symName: __ZNSt3__113move_backwardB8ne180100IPPNS_10shared_ptrI5EventEES5_EET0_T_S7_S6_, symObjAddr: 0x1B5A0, symBinAddr: 0x10001EAA4, symSize: 0x40 }
  - { offset: 0x224B3, size: 0x8, addend: 0x0, symName: __ZNSt3__115__move_backwardB8ne180100INS_17_ClassicAlgPolicyEPPNS_10shared_ptrI5EventEES6_S6_EENS_4pairIT0_T2_EES8_T1_S9_, symObjAddr: 0x1B5E0, symBinAddr: 0x10001EAE4, symSize: 0x44 }
  - { offset: 0x2251F, size: 0x8, addend: 0x0, symName: __ZNSt3__123__dispatch_copy_or_moveB8ne180100INS_17_ClassicAlgPolicyENS_20__move_backward_loopIS1_EENS_23__move_backward_trivialEPPNS_10shared_ptrI5EventEES9_S9_EENS_4pairIT2_T4_EESB_T3_SC_, symObjAddr: 0x1B624, symBinAddr: 0x10001EB28, symSize: 0x44 }
  - { offset: 0x2259D, size: 0x8, addend: 0x0, symName: __ZNSt3__121__unwrap_and_dispatchB8ne180100INS_10__overloadINS_20__move_backward_loopINS_17_ClassicAlgPolicyEEENS_23__move_backward_trivialEEEPPNS_10shared_ptrI5EventEESB_SB_Li0EEENS_4pairIT0_T2_EESD_T1_SE_, symObjAddr: 0x1B668, symBinAddr: 0x10001EB6C, symSize: 0xB4 }
  - { offset: 0x2262B, size: 0x8, addend: 0x0, symName: __ZNSt3__128__copy_backward_trivial_implB8ne180100IPNS_10shared_ptrI5EventEES4_EENS_4pairIPT_PT0_EES7_S7_S9_, symObjAddr: 0x1B764, symBinAddr: 0x10001EC68, symSize: 0x90 }
  - { offset: 0x22693, size: 0x8, addend: 0x0, symName: __ZNSt3__19make_pairB8ne180100IRPPNS_10shared_ptrI5EventEES6_EENS_4pairINS_18__unwrap_ref_decayIT_E4typeENS8_IT0_E4typeEEEOS9_OSC_, symObjAddr: 0x1B7F4, symBinAddr: 0x10001ECF8, symSize: 0x38 }
  - { offset: 0x226E2, size: 0x8, addend: 0x0, symName: __ZNSt3__119__allocate_at_leastB8ne180100INS_9allocatorIPNS_10shared_ptrI5EventEEEEEENS_19__allocation_resultINS_16allocator_traitsIT_E7pointerEEERS9_m, symObjAddr: 0x1B9AC, symBinAddr: 0x10001EEB0, symSize: 0x40 }
  - { offset: 0x22725, size: 0x8, addend: 0x0, symName: __ZNSt3__115allocate_sharedB8ne180100I10SoundEventNS_9allocatorIS1_EEJR11SoundPlayerEvEENS_10shared_ptrIT_EERKT0_DpOT1_, symObjAddr: 0x1C098, symBinAddr: 0x10001F59C, symSize: 0x98 }
  - { offset: 0x22B8D, size: 0x8, addend: 0x0, symName: __ZNSt3__115allocate_sharedB8ne180100I11RotateEventNS_9allocatorIS1_EEJRNS_10shared_ptrI6LayoutEEEvEENS4_IT_EERKT0_DpOT1_, symObjAddr: 0x1CD18, symBinAddr: 0x10002021C, symSize: 0x98 }
  - { offset: 0x22FF5, size: 0x8, addend: 0x0, symName: __ZNSt3__112__to_addressB8ne180100INS_10shared_ptrI5EventEEEEPT_S5_, symObjAddr: 0x1D98C, symBinAddr: 0x100020E90, symSize: 0x14 }
  - { offset: 0x2443E, size: 0x8, addend: 0x0, symName: __ZSt28__throw_bad_array_new_lengthB8ne180100v, symObjAddr: 0x27CC, symBinAddr: 0x100005CD0, symSize: 0x34 }
  - { offset: 0x26F0E, size: 0x8, addend: 0x0, symName: __ZNSt3__16vectorINS_12basic_stringIcNS_11char_traitsIcEENS_9allocatorIcEEEENS4_IS6_EEE26__swap_out_circular_bufferERNS_14__split_bufferIS6_RS7_EE, symObjAddr: 0x6A98, symBinAddr: 0x100009F9C, symSize: 0x110 }
  - { offset: 0x2705A, size: 0x8, addend: 0x0, symName: __ZNSt3__16vectorINS_10shared_ptrI7ElementEENS_9allocatorIS3_EEE26__swap_out_circular_bufferERNS_14__split_bufferIS3_RS5_EE, symObjAddr: 0xBA0C, symBinAddr: 0x10000EF10, symSize: 0x110 }
  - { offset: 0x278CD, size: 0x8, addend: 0x0, symName: __ZNSt3__16vectorINS_10shared_ptrI6LayoutEENS_9allocatorIS3_EEE26__swap_out_circular_bufferERNS_14__split_bufferIS3_RS5_EE, symObjAddr: 0x1283C, symBinAddr: 0x100015D40, symSize: 0x110 }
  - { offset: 0x281A6, size: 0x8, addend: 0x0, symName: __ZNK5Tvec3IiE9magnitudeEv, symObjAddr: 0x0, symBinAddr: 0x100003504, symSize: 0x6C }
  - { offset: 0x281CC, size: 0x8, addend: 0x0, symName: __ZNK5Tvec2IiE9magnitudeEv, symObjAddr: 0x90, symBinAddr: 0x100003594, symSize: 0x54 }
  - { offset: 0x281F2, size: 0x8, addend: 0x0, symName: _main, symObjAddr: 0xE4, symBinAddr: 0x1000035E8, symSize: 0x934 }
  - { offset: 0x28380, size: 0x8, addend: 0x0, symName: __ZNSt3__113basic_ostreamIcNS_11char_traitsIcEEElsB8ne180100EPFRS3_S4_E, symObjAddr: 0xA60, symBinAddr: 0x100003F64, symSize: 0x2C }
  - { offset: 0x283B4, size: 0x8, addend: 0x0, symName: __ZN6ScreenC1Ejj, symObjAddr: 0xAE4, symBinAddr: 0x100003FE8, symSize: 0x3C }
  - { offset: 0x2886A, size: 0x8, addend: 0x0, symName: __ZN7GUIFileC1Eii, symObjAddr: 0xB20, symBinAddr: 0x100004024, symSize: 0x3C }
  - { offset: 0x288B0, size: 0x8, addend: 0x0, symName: __ZN7GUIFile8readFileERKNSt3__112basic_stringIcNS0_11char_traitsIcEENS0_9allocatorIcEEEE, symObjAddr: 0xB5C, symBinAddr: 0x100004060, symSize: 0x30C }
  - { offset: 0x28985, size: 0x8, addend: 0x0, symName: __ZNSt3__112basic_stringIcNS_11char_traitsIcEENS_9allocatorIcEEEC1B8ne180100ILi0EEEPKc, symObjAddr: 0xE68, symBinAddr: 0x10000436C, symSize: 0x34 }
  - { offset: 0x289C4, size: 0x8, addend: 0x0, symName: __ZNK7GUIFile6renderER6Screen, symObjAddr: 0xE9C, symBinAddr: 0x1000043A0, symSize: 0x44 }
  - { offset: 0x289F8, size: 0x8, addend: 0x0, symName: __ZN7GUIFile11writeToFileEPc, symObjAddr: 0xEE0, symBinAddr: 0x1000043E4, symSize: 0x5C }
  - { offset: 0x28A2C, size: 0x8, addend: 0x0, symName: __ZN6Screen6blitToEP11SDL_SurfaceP8SDL_Rect, symObjAddr: 0xF3C, symBinAddr: 0x100004440, symSize: 0xA8 }
  - { offset: 0x28A6E, size: 0x8, addend: 0x0, symName: __ZNSt3__110shared_ptrI6LayoutEC1B8ne180100Ev, symObjAddr: 0xFE4, symBinAddr: 0x1000044E8, symSize: 0x2C }
  - { offset: 0x28A98, size: 0x8, addend: 0x0, symName: __ZN7GUIFile10findLayoutENSt3__112basic_stringIcNS0_11char_traitsIcEENS0_9allocatorIcEEEE, symObjAddr: 0x1010, symBinAddr: 0x100004514, symSize: 0xB4 }
  - { offset: 0x28ACD, size: 0x8, addend: 0x0, symName: __ZNSt3__110shared_ptrI6LayoutEaSB8ne180100EOS2_, symObjAddr: 0x10C4, symBinAddr: 0x1000045C8, symSize: 0x50 }
  - { offset: 0x28B02, size: 0x8, addend: 0x0, symName: __ZNSt3__110shared_ptrI6LayoutED1B8ne180100Ev, symObjAddr: 0x1114, symBinAddr: 0x100004618, symSize: 0x2C }
  - { offset: 0x28BAA, size: 0x8, addend: 0x0, symName: __ZN14ElementFactory13createElementE11ElementType5Tvec2IiES2_S2_5Tvec3IiE, symObjAddr: 0x1140, symBinAddr: 0x100004644, symSize: 0x7C }
  - { offset: 0x28C09, size: 0x8, addend: 0x0, symName: __ZN5Tvec2IiEC1Eii, symObjAddr: 0x11BC, symBinAddr: 0x1000046C0, symSize: 0x4C }
  - { offset: 0x28C4F, size: 0x8, addend: 0x0, symName: __ZN5Tvec3IiEC1Eiii, symObjAddr: 0x1208, symBinAddr: 0x10000470C, symSize: 0x5C }
  - { offset: 0x28CA3, size: 0x8, addend: 0x0, symName: __ZNKSt3__110shared_ptrI6LayoutEptB8ne180100Ev, symObjAddr: 0x1264, symBinAddr: 0x100004768, symSize: 0x18 }
  - { offset: 0x28CC9, size: 0x8, addend: 0x0, symName: __ZNSt3__16vectorINS_10shared_ptrI7ElementEENS_9allocatorIS3_EEE9push_backB8ne180100ERKS3_, symObjAddr: 0x127C, symBinAddr: 0x100004780, symSize: 0x90 }
  - { offset: 0x28D0F, size: 0x8, addend: 0x0, symName: __ZNSt3__110shared_ptrI7ElementEC1B8ne180100ERKS2_, symObjAddr: 0x130C, symBinAddr: 0x100004810, symSize: 0x34 }
  - { offset: 0x28D48, size: 0x8, addend: 0x0, symName: __ZNSt3__110shared_ptrI6LayoutEC1B8ne180100ERKS2_, symObjAddr: 0x1340, symBinAddr: 0x100004844, symSize: 0x34 }
  - { offset: 0x28E50, size: 0x8, addend: 0x0, symName: __ZN6ButtonC1ENSt3__110shared_ptrI7ElementEENS1_I6LayoutEE, symObjAddr: 0x1374, symBinAddr: 0x100004878, symSize: 0x3C }
  - { offset: 0x28E98, size: 0x8, addend: 0x0, symName: __ZNSt3__110shared_ptrI7ElementED1B8ne180100Ev, symObjAddr: 0x13B0, symBinAddr: 0x1000048B4, symSize: 0x2C }
  - { offset: 0x28EC2, size: 0x8, addend: 0x0, symName: __ZN11SoundPlayerC1Ev, symObjAddr: 0x13DC, symBinAddr: 0x1000048E0, symSize: 0x2C }
  - { offset: 0x28EEC, size: 0x8, addend: 0x0, symName: __ZN11SoundPlayer9loadSoundERKNSt3__112basic_stringIcNS0_11char_traitsIcEENS0_9allocatorIcEEEE, symObjAddr: 0x1448, symBinAddr: 0x10000494C, symSize: 0x150 }
  - { offset: 0x28F20, size: 0x8, addend: 0x0, symName: __ZNSt3__15dequeINS_10shared_ptrI5EventEENS_9allocatorIS3_EEEC1B8ne180100Ev, symObjAddr: 0x1598, symBinAddr: 0x100004A9C, symSize: 0x2C }
  - { offset: 0x28F4A, size: 0x8, addend: 0x0, symName: __ZN10ClickEventC1Eii, symObjAddr: 0x15C4, symBinAddr: 0x100004AC8, symSize: 0x3C }
  - { offset: 0x28F90, size: 0x8, addend: 0x0, symName: __ZN6Button16checkButtonPressE10ClickEvent, symObjAddr: 0x1600, symBinAddr: 0x100004B04, symSize: 0x4C }
  - { offset: 0x28FD0, size: 0x8, addend: 0x0, symName: __ZN10ClickEventC1ERKS_, symObjAddr: 0x164C, symBinAddr: 0x100004B50, symSize: 0x34 }
  - { offset: 0x29005, size: 0x8, addend: 0x0, symName: __ZNSt3__15dequeINS_10shared_ptrI5EventEENS_9allocatorIS3_EEE9push_backEOS3_, symObjAddr: 0x1680, symBinAddr: 0x100004B84, symSize: 0xAC }
  - { offset: 0x2904B, size: 0x8, addend: 0x0, symName: __ZN6Button11createEventEv, symObjAddr: 0x172C, symBinAddr: 0x100004C30, symSize: 0x4C }
  - { offset: 0x29071, size: 0x8, addend: 0x0, symName: __ZNSt3__110shared_ptrI5EventED1B8ne180100Ev, symObjAddr: 0x1778, symBinAddr: 0x100004C7C, symSize: 0x2C }
  - { offset: 0x290C4, size: 0x8, addend: 0x0, symName: __ZNSt3__110shared_ptrI5EventEC1B8ne180100I10SoundEventvEEONS0_IT_EE, symObjAddr: 0x17E4, symBinAddr: 0x100004CE8, symSize: 0x34 }
  - { offset: 0x29107, size: 0x8, addend: 0x0, symName: __ZNSt3__110shared_ptrI10SoundEventED1B8ne180100Ev, symObjAddr: 0x1818, symBinAddr: 0x100004D1C, symSize: 0x2C }
  - { offset: 0x29131, size: 0x8, addend: 0x0, symName: __ZNSt3__15dequeINS_10shared_ptrI5EventEENS_9allocatorIS3_EEE9push_backERKS3_, symObjAddr: 0x1844, symBinAddr: 0x100004D48, symSize: 0xAC }
  - { offset: 0x291A0, size: 0x8, addend: 0x0, symName: __ZNSt3__110shared_ptrI5EventEC1B8ne180100I11RotateEventvEEONS0_IT_EE, symObjAddr: 0x1930, symBinAddr: 0x100004E34, symSize: 0x34 }
  - { offset: 0x291E3, size: 0x8, addend: 0x0, symName: __ZNSt3__110shared_ptrI11RotateEventED1B8ne180100Ev, symObjAddr: 0x1964, symBinAddr: 0x100004E68, symSize: 0x2C }
  - { offset: 0x2920D, size: 0x8, addend: 0x0, symName: __ZN6Screen5clearEv, symObjAddr: 0x1990, symBinAddr: 0x100004E94, symSize: 0xD0 }
  - { offset: 0x2924F, size: 0x8, addend: 0x0, symName: __ZNKSt3__15dequeINS_10shared_ptrI5EventEENS_9allocatorIS3_EEE5emptyB8ne180100Ev, symObjAddr: 0x1A60, symBinAddr: 0x100004F64, symSize: 0x30 }
  - { offset: 0x29275, size: 0x8, addend: 0x0, symName: __ZNSt3__15dequeINS_10shared_ptrI5EventEENS_9allocatorIS3_EEE5frontEv, symObjAddr: 0x1A90, symBinAddr: 0x100004F94, symSize: 0x50 }
  - { offset: 0x2929D, size: 0x8, addend: 0x0, symName: __ZNKSt3__110shared_ptrI5EventEptB8ne180100Ev, symObjAddr: 0x1AE0, symBinAddr: 0x100004FE4, symSize: 0x18 }
  - { offset: 0x292C3, size: 0x8, addend: 0x0, symName: __ZNSt3__15dequeINS_10shared_ptrI5EventEENS_9allocatorIS3_EEE9pop_frontEv, symObjAddr: 0x1AF8, symBinAddr: 0x100004FFC, symSize: 0xD4 }
  - { offset: 0x29318, size: 0x8, addend: 0x0, symName: __ZNSt3__15dequeINS_10shared_ptrI5EventEENS_9allocatorIS3_EEED1B8ne180100Ev, symObjAddr: 0x1BCC, symBinAddr: 0x1000050D0, symSize: 0x2C }
  - { offset: 0x2936B, size: 0x8, addend: 0x0, symName: __ZNSt3__110shared_ptrI11SoundPlayerED1B8ne180100Ev, symObjAddr: 0x1BF8, symBinAddr: 0x1000050FC, symSize: 0x2C }
  - { offset: 0x29395, size: 0x8, addend: 0x0, symName: __ZN11SoundPlayerD1Ev, symObjAddr: 0x1C24, symBinAddr: 0x100005128, symSize: 0x2C }
  - { offset: 0x293BF, size: 0x8, addend: 0x0, symName: __ZN6ButtonD1Ev, symObjAddr: 0x1C50, symBinAddr: 0x100005154, symSize: 0x2C }
  - { offset: 0x293EB, size: 0x8, addend: 0x0, symName: __ZN7GUIFileD1Ev, symObjAddr: 0x1C7C, symBinAddr: 0x100005180, symSize: 0x2C }
  - { offset: 0x29417, size: 0x8, addend: 0x0, symName: __ZN6ScreenD1Ev, symObjAddr: 0x1CA8, symBinAddr: 0x1000051AC, symSize: 0x2C }
  - { offset: 0x29441, size: 0x8, addend: 0x0, symName: __ZN6ScreenC2Ejj, symObjAddr: 0x1CD4, symBinAddr: 0x1000051D8, symSize: 0xA8 }
  - { offset: 0x29487, size: 0x8, addend: 0x0, symName: __ZN7GUIFileC2Eii, symObjAddr: 0x1D7C, symBinAddr: 0x100005280, symSize: 0xF0 }
  - { offset: 0x294CD, size: 0x8, addend: 0x0, symName: __ZNSt3__114basic_ifstreamIcNS_11char_traitsIcEEEC1Ev, symObjAddr: 0x1E6C, symBinAddr: 0x100005370, symSize: 0xE0 }
  - { offset: 0x294F9, size: 0x8, addend: 0x0, symName: __ZNSt3__114basic_ofstreamIcNS_11char_traitsIcEEEC1Ev, symObjAddr: 0x1F4C, symBinAddr: 0x100005450, symSize: 0xE0 }
  - { offset: 0x29525, size: 0x8, addend: 0x0, symName: __ZNSt3__16vectorINS_12basic_stringIcNS_11char_traitsIcEENS_9allocatorIcEEEENS4_IS6_EEEC1B8ne180100Ev, symObjAddr: 0x202C, symBinAddr: 0x100005530, symSize: 0x2C }
  - { offset: 0x2954F, size: 0x8, addend: 0x0, symName: __ZNSt3__16vectorINS_12basic_stringIcNS_11char_traitsIcEENS_9allocatorIcEEEENS4_IS6_EEED1B8ne180100Ev, symObjAddr: 0x2090, symBinAddr: 0x100005594, symSize: 0x2C }
  - { offset: 0x2957F, size: 0x8, addend: 0x0, symName: __ZNSt3__114basic_ofstreamIcNS_11char_traitsIcEEED1Ev, symObjAddr: 0x20BC, symBinAddr: 0x1000055C0, symSize: 0x40 }
  - { offset: 0x295B2, size: 0x8, addend: 0x0, symName: __ZNSt3__114basic_ifstreamIcNS_11char_traitsIcEEED1Ev, symObjAddr: 0x20FC, symBinAddr: 0x100005600, symSize: 0x40 }
  - { offset: 0x295DF, size: 0x8, addend: 0x0, symName: __ZNSt3__19basic_iosIcNS_11char_traitsIcEEEC2B8ne180100Ev, symObjAddr: 0x213C, symBinAddr: 0x100005640, symSize: 0x3C }
  - { offset: 0x29609, size: 0x8, addend: 0x0, symName: __ZNSt3__113basic_istreamIcNS_11char_traitsIcEEEC2B8ne180100EPNS_15basic_streambufIcS2_EE, symObjAddr: 0x2178, symBinAddr: 0x10000567C, symSize: 0x64 }
  - { offset: 0x2964E, size: 0x8, addend: 0x0, symName: __ZNSt3__18ios_baseC2B8ne180100Ev, symObjAddr: 0x21DC, symBinAddr: 0x1000056E0, symSize: 0x24 }
  - { offset: 0x29678, size: 0x8, addend: 0x0, symName: __ZNSt3__19basic_iosIcNS_11char_traitsIcEEE4initB8ne180100EPNS_15basic_streambufIcS2_EE, symObjAddr: 0x2200, symBinAddr: 0x100005704, symSize: 0x44 }
  - { offset: 0x296AF, size: 0x8, addend: 0x0, symName: __ZNSt3__111char_traitsIcE3eofB8ne180100Ev, symObjAddr: 0x2244, symBinAddr: 0x100005748, symSize: 0x8 }
  - { offset: 0x296C3, size: 0x8, addend: 0x0, symName: __ZNSt3__113basic_ostreamIcNS_11char_traitsIcEEEC2B8ne180100EPNS_15basic_streambufIcS2_EE, symObjAddr: 0x224C, symBinAddr: 0x100005750, symSize: 0x60 }
  - { offset: 0x29708, size: 0x8, addend: 0x0, symName: __ZNSt3__16vectorINS_12basic_stringIcNS_11char_traitsIcEENS_9allocatorIcEEEENS4_IS6_EEEC2B8ne180100Ev, symObjAddr: 0x22AC, symBinAddr: 0x1000057B0, symSize: 0x4C }
  - { offset: 0x2973E, size: 0x8, addend: 0x0, symName: __ZNSt3__117__compressed_pairIPNS_12basic_stringIcNS_11char_traitsIcEENS_9allocatorIcEEEENS4_IS6_EEEC1B8ne180100IDnNS_18__default_init_tagEEEOT_OT0_, symObjAddr: 0x22F8, symBinAddr: 0x1000057FC, symSize: 0x3C }
  - { offset: 0x29796, size: 0x8, addend: 0x0, symName: __ZNSt3__117__compressed_pairIPNS_12basic_stringIcNS_11char_traitsIcEENS_9allocatorIcEEEENS4_IS6_EEEC2B8ne180100IDnNS_18__default_init_tagEEEOT_OT0_, symObjAddr: 0x2344, symBinAddr: 0x100005848, symSize: 0x40 }
  - { offset: 0x297EE, size: 0x8, addend: 0x0, symName: __ZNSt3__122__compressed_pair_elemIPNS_12basic_stringIcNS_11char_traitsIcEENS_9allocatorIcEEEELi0ELb0EEC2B8ne180100IDnvEEOT_, symObjAddr: 0x2384, symBinAddr: 0x100005888, symSize: 0x1C }
  - { offset: 0x29830, size: 0x8, addend: 0x0, symName: __ZNSt3__122__compressed_pair_elemINS_9allocatorINS_12basic_stringIcNS_11char_traitsIcEENS1_IcEEEEEELi1ELb1EEC2B8ne180100ENS_18__default_init_tagE, symObjAddr: 0x23A0, symBinAddr: 0x1000058A4, symSize: 0x2C }
  - { offset: 0x29864, size: 0x8, addend: 0x0, symName: __ZNSt3__19allocatorINS_12basic_stringIcNS_11char_traitsIcEENS0_IcEEEEEC2B8ne180100Ev, symObjAddr: 0x23CC, symBinAddr: 0x1000058D0, symSize: 0x2C }
  - { offset: 0x2988E, size: 0x8, addend: 0x0, symName: __ZNSt3__116__non_trivial_ifILb1ENS_9allocatorINS_12basic_stringIcNS_11char_traitsIcEENS1_IcEEEEEEEC2B8ne180100Ev, symObjAddr: 0x23F8, symBinAddr: 0x1000058FC, symSize: 0x14 }
  - { offset: 0x298B8, size: 0x8, addend: 0x0, symName: __ZNSt3__19allocatorI6LayoutEC1B8ne180100Ev, symObjAddr: 0x249C, symBinAddr: 0x1000059A0, symSize: 0x2C }
  - { offset: 0x29939, size: 0x8, addend: 0x0, symName: __ZNSt3__118__allocation_guardINS_9allocatorINS_20__shared_ptr_emplaceI6LayoutNS1_IS3_EEEEEEEC1B8ne180100IS4_EET_m, symObjAddr: 0x24C8, symBinAddr: 0x1000059CC, symSize: 0x34 }
  - { offset: 0x29988, size: 0x8, addend: 0x0, symName: __ZNKSt3__118__allocation_guardINS_9allocatorINS_20__shared_ptr_emplaceI6LayoutNS1_IS3_EEEEEEE5__getB8ne180100Ev, symObjAddr: 0x24FC, symBinAddr: 0x100005A00, symSize: 0x18 }
  - { offset: 0x299AE, size: 0x8, addend: 0x0, symName: __ZNSt3__120__shared_ptr_emplaceI6LayoutNS_9allocatorIS1_EEEC1B8ne180100IJES3_Li0EEES3_DpOT_, symObjAddr: 0x2514, symBinAddr: 0x100005A18, symSize: 0x2C }
  - { offset: 0x299FB, size: 0x8, addend: 0x0, symName: __ZNSt3__118__allocation_guardINS_9allocatorINS_20__shared_ptr_emplaceI6LayoutNS1_IS3_EEEEEEE13__release_ptrB8ne180100Ev, symObjAddr: 0x2540, symBinAddr: 0x100005A44, symSize: 0x24 }
  - { offset: 0x29A2F, size: 0x8, addend: 0x0, symName: __ZNSt3__110shared_ptrI6LayoutE27__create_with_control_blockB8ne180100IS1_NS_20__shared_ptr_emplaceIS1_NS_9allocatorIS1_EEEEEES2_PT_PT0_, symObjAddr: 0x2564, symBinAddr: 0x100005A68, symSize: 0xA4 }
  - { offset: 0x29A84, size: 0x8, addend: 0x0, symName: __ZNSt3__120__shared_ptr_emplaceI6LayoutNS_9allocatorIS1_EEE10__get_elemB8ne180100Ev, symObjAddr: 0x2608, symBinAddr: 0x100005B0C, symSize: 0x28 }
  - { offset: 0x29AAA, size: 0x8, addend: 0x0, symName: __ZNSt3__118__allocation_guardINS_9allocatorINS_20__shared_ptr_emplaceI6LayoutNS1_IS3_EEEEEEED1B8ne180100Ev, symObjAddr: 0x2630, symBinAddr: 0x100005B34, symSize: 0x2C }
  - { offset: 0x29AD4, size: 0x8, addend: 0x0, symName: __ZNSt3__118__allocation_guardINS_9allocatorINS_20__shared_ptr_emplaceI6LayoutNS1_IS3_EEEEEEEC2B8ne180100IS4_EET_m, symObjAddr: 0x265C, symBinAddr: 0x100005B60, symSize: 0x50 }
  - { offset: 0x29B23, size: 0x8, addend: 0x0, symName: __ZNSt3__19allocatorINS_20__shared_ptr_emplaceI6LayoutNS0_IS2_EEEEEC1B8ne180100IS2_EERKNS0_IT_EE, symObjAddr: 0x26AC, symBinAddr: 0x100005BB0, symSize: 0x34 }
  - { offset: 0x29B60, size: 0x8, addend: 0x0, symName: __ZNSt3__116allocator_traitsINS_9allocatorINS_20__shared_ptr_emplaceI6LayoutNS1_IS3_EEEEEEE8allocateB8ne180100ERS6_m, symObjAddr: 0x26E0, symBinAddr: 0x100005BE4, symSize: 0x2C }
  - { offset: 0x29B93, size: 0x8, addend: 0x0, symName: __ZNSt3__19allocatorINS_20__shared_ptr_emplaceI6LayoutNS0_IS2_EEEEEC2B8ne180100IS2_EERKNS0_IT_EE, symObjAddr: 0x270C, symBinAddr: 0x100005C10, symSize: 0x30 }
  - { offset: 0x29BD0, size: 0x8, addend: 0x0, symName: __ZNSt3__116__non_trivial_ifILb1ENS_9allocatorINS_20__shared_ptr_emplaceI6LayoutNS1_IS3_EEEEEEEC2B8ne180100Ev, symObjAddr: 0x273C, symBinAddr: 0x100005C40, symSize: 0x14 }
  - { offset: 0x29BFA, size: 0x8, addend: 0x0, symName: __ZNSt3__19allocatorINS_20__shared_ptr_emplaceI6LayoutNS0_IS2_EEEEE8allocateB8ne180100Em, symObjAddr: 0x2750, symBinAddr: 0x100005C54, symSize: 0x58 }
  - { offset: 0x29C39, size: 0x8, addend: 0x0, symName: __ZNSt3__116allocator_traitsINS_9allocatorINS_20__shared_ptr_emplaceI6LayoutNS1_IS3_EEEEEEE8max_sizeB8ne180100IS6_vEEmRKS6_, symObjAddr: 0x27A8, symBinAddr: 0x100005CAC, symSize: 0x24 }
  - { offset: 0x29C67, size: 0x8, addend: 0x0, symName: __ZNKSt3__19allocatorINS_20__shared_ptr_emplaceI6LayoutNS0_IS2_EEEEE8max_sizeB8ne180100Ev, symObjAddr: 0x2860, symBinAddr: 0x100005D64, symSize: 0x14 }
  - { offset: 0x29C8D, size: 0x8, addend: 0x0, symName: __ZNSt3__120__shared_ptr_emplaceI6LayoutNS_9allocatorIS1_EEEC2B8ne180100IJES3_Li0EEES3_DpOT_, symObjAddr: 0x28E4, symBinAddr: 0x100005DE8, symSize: 0xB4 }
  - { offset: 0x29CFB, size: 0x8, addend: 0x0, symName: __ZNSt3__119__shared_weak_countC2B8ne180100El, symObjAddr: 0x2998, symBinAddr: 0x100005E9C, symSize: 0x4C }
  - { offset: 0x29D33, size: 0x8, addend: 0x0, symName: __ZNSt3__120__shared_ptr_emplaceI6LayoutNS_9allocatorIS1_EEE8_StorageC1B8ne180100EOS3_, symObjAddr: 0x29E4, symBinAddr: 0x100005EE8, symSize: 0x34 }
  - { offset: 0x29D6C, size: 0x8, addend: 0x0, symName: __ZNSt3__120__shared_ptr_emplaceI6LayoutNS_9allocatorIS1_EEE11__get_allocB8ne180100Ev, symObjAddr: 0x2A18, symBinAddr: 0x100005F1C, symSize: 0x28 }
  - { offset: 0x29D98, size: 0x8, addend: 0x0, symName: __ZNSt3__116allocator_traitsINS_9allocatorI6LayoutEEE9constructB8ne180100IS2_JEvEEvRS3_PT_DpOT0_, symObjAddr: 0x2A40, symBinAddr: 0x100005F44, symSize: 0x2C }
  - { offset: 0x29DDA, size: 0x8, addend: 0x0, symName: __ZNSt3__120__shared_ptr_emplaceI6LayoutNS_9allocatorIS1_EEE8_StorageD1B8ne180100Ev, symObjAddr: 0x2A6C, symBinAddr: 0x100005F70, symSize: 0x2C }
  - { offset: 0x29E04, size: 0x8, addend: 0x0, symName: __ZNSt3__120__shared_ptr_emplaceI6LayoutNS_9allocatorIS1_EEED1Ev, symObjAddr: 0x2A98, symBinAddr: 0x100005F9C, symSize: 0x2C }
  - { offset: 0x29E30, size: 0x8, addend: 0x0, symName: __ZNSt3__120__shared_ptr_emplaceI6LayoutNS_9allocatorIS1_EEED0Ev, symObjAddr: 0x2AC4, symBinAddr: 0x100005FC8, symSize: 0x30 }
  - { offset: 0x29E5C, size: 0x8, addend: 0x0, symName: __ZNSt3__120__shared_ptr_emplaceI6LayoutNS_9allocatorIS1_EEE16__on_zero_sharedEv, symObjAddr: 0x2AF4, symBinAddr: 0x100005FF8, symSize: 0x24 }
  - { offset: 0x29E82, size: 0x8, addend: 0x0, symName: __ZNSt3__120__shared_ptr_emplaceI6LayoutNS_9allocatorIS1_EEE21__on_zero_shared_weakEv, symObjAddr: 0x2B18, symBinAddr: 0x10000601C, symSize: 0x5C }
  - { offset: 0x29EC3, size: 0x8, addend: 0x0, symName: __ZNSt3__114__shared_countC2B8ne180100El, symObjAddr: 0x2B74, symBinAddr: 0x100006078, symSize: 0x30 }
  - { offset: 0x29EFB, size: 0x8, addend: 0x0, symName: __ZNSt3__120__shared_ptr_emplaceI6LayoutNS_9allocatorIS1_EEE8_StorageC2B8ne180100EOS3_, symObjAddr: 0x2BA4, symBinAddr: 0x1000060A8, symSize: 0x30 }
  - { offset: 0x29F34, size: 0x8, addend: 0x0, symName: __ZNSt3__120__shared_ptr_emplaceI6LayoutNS_9allocatorIS1_EEE8_Storage11__get_allocB8ne180100Ev, symObjAddr: 0x2BD4, symBinAddr: 0x1000060D8, symSize: 0x3C }
  - { offset: 0x29F87, size: 0x8, addend: 0x0, symName: __ZNSt3__117__compressed_pairINS_9allocatorI6LayoutEES2_E16__get_first_baseB8ne180100EPS4_, symObjAddr: 0x2C10, symBinAddr: 0x100006114, symSize: 0x14 }
  - { offset: 0x29FAA, size: 0x8, addend: 0x0, symName: __ZNSt3__19allocatorI6LayoutE9constructB8ne180100IS1_JEEEvPT_DpOT0_, symObjAddr: 0x2C24, symBinAddr: 0x100006128, symSize: 0x28 }
  - { offset: 0x29FEC, size: 0x8, addend: 0x0, symName: __ZN6LayoutC1Ev, symObjAddr: 0x2C4C, symBinAddr: 0x100006150, symSize: 0x2C }
  - { offset: 0x2A016, size: 0x8, addend: 0x0, symName: __ZN6LayoutC2Ev, symObjAddr: 0x2C78, symBinAddr: 0x10000617C, symSize: 0xBC }
  - { offset: 0x2A040, size: 0x8, addend: 0x0, symName: __ZNSt3__16vectorINS_10shared_ptrI7ElementEENS_9allocatorIS3_EEEC1B8ne180100Ev, symObjAddr: 0x2D34, symBinAddr: 0x100006238, symSize: 0x2C }
  - { offset: 0x2A06A, size: 0x8, addend: 0x0, symName: __ZNSt3__16vectorINS_10shared_ptrI6LayoutEENS_9allocatorIS3_EEEC1B8ne180100Ev, symObjAddr: 0x2D60, symBinAddr: 0x100006264, symSize: 0x2C }
  - { offset: 0x2A094, size: 0x8, addend: 0x0, symName: __ZNSt3__112basic_stringIcNS_11char_traitsIcEENS_9allocatorIcEEEC1B8ne180100Ev, symObjAddr: 0x2D8C, symBinAddr: 0x100006290, symSize: 0x2C }
  - { offset: 0x2A0BE, size: 0x8, addend: 0x0, symName: __ZN5Tvec2IfEC1Ev, symObjAddr: 0x2DB8, symBinAddr: 0x1000062BC, symSize: 0x2C }
  - { offset: 0x2A0E8, size: 0x8, addend: 0x0, symName: __ZNSt3__112basic_stringIcNS_11char_traitsIcEENS_9allocatorIcEEEaSB8ne180100EPKc, symObjAddr: 0x2DE4, symBinAddr: 0x1000062E8, symSize: 0x2C }
  - { offset: 0x2A11D, size: 0x8, addend: 0x0, symName: __ZNSt3__16vectorINS_10shared_ptrI6LayoutEENS_9allocatorIS3_EEED1B8ne180100Ev, symObjAddr: 0x2E10, symBinAddr: 0x100006314, symSize: 0x2C }
  - { offset: 0x2A147, size: 0x8, addend: 0x0, symName: __ZNSt3__16vectorINS_10shared_ptrI7ElementEENS_9allocatorIS3_EEED1B8ne180100Ev, symObjAddr: 0x2E3C, symBinAddr: 0x100006340, symSize: 0x2C }
  - { offset: 0x2A171, size: 0x8, addend: 0x0, symName: __ZNSt3__16vectorINS_10shared_ptrI7ElementEENS_9allocatorIS3_EEEC2B8ne180100Ev, symObjAddr: 0x2E68, symBinAddr: 0x10000636C, symSize: 0x4C }
  - { offset: 0x2A19B, size: 0x8, addend: 0x0, symName: __ZNSt3__117__compressed_pairIPNS_10shared_ptrI7ElementEENS_9allocatorIS3_EEEC1B8ne180100IDnNS_18__default_init_tagEEEOT_OT0_, symObjAddr: 0x2EB4, symBinAddr: 0x1000063B8, symSize: 0x3C }
  - { offset: 0x2A1F3, size: 0x8, addend: 0x0, symName: __ZNSt3__117__compressed_pairIPNS_10shared_ptrI7ElementEENS_9allocatorIS3_EEEC2B8ne180100IDnNS_18__default_init_tagEEEOT_OT0_, symObjAddr: 0x2EF0, symBinAddr: 0x1000063F4, symSize: 0x40 }
  - { offset: 0x2A24B, size: 0x8, addend: 0x0, symName: __ZNSt3__122__compressed_pair_elemIPNS_10shared_ptrI7ElementEELi0ELb0EEC2B8ne180100IDnvEEOT_, symObjAddr: 0x2F30, symBinAddr: 0x100006434, symSize: 0x1C }
  - { offset: 0x2A28D, size: 0x8, addend: 0x0, symName: __ZNSt3__122__compressed_pair_elemINS_9allocatorINS_10shared_ptrI7ElementEEEELi1ELb1EEC2B8ne180100ENS_18__default_init_tagE, symObjAddr: 0x2F4C, symBinAddr: 0x100006450, symSize: 0x2C }
  - { offset: 0x2A2C1, size: 0x8, addend: 0x0, symName: __ZNSt3__19allocatorINS_10shared_ptrI7ElementEEEC2B8ne180100Ev, symObjAddr: 0x2F78, symBinAddr: 0x10000647C, symSize: 0x2C }
  - { offset: 0x2A2EB, size: 0x8, addend: 0x0, symName: __ZNSt3__116__non_trivial_ifILb1ENS_9allocatorINS_10shared_ptrI7ElementEEEEEC2B8ne180100Ev, symObjAddr: 0x2FA4, symBinAddr: 0x1000064A8, symSize: 0x14 }
  - { offset: 0x2A315, size: 0x8, addend: 0x0, symName: __ZNSt3__16vectorINS_10shared_ptrI6LayoutEENS_9allocatorIS3_EEEC2B8ne180100Ev, symObjAddr: 0x2FB8, symBinAddr: 0x1000064BC, symSize: 0x4C }
  - { offset: 0x2A33F, size: 0x8, addend: 0x0, symName: __ZNSt3__117__compressed_pairIPNS_10shared_ptrI6LayoutEENS_9allocatorIS3_EEEC1B8ne180100IDnNS_18__default_init_tagEEEOT_OT0_, symObjAddr: 0x3004, symBinAddr: 0x100006508, symSize: 0x3C }
  - { offset: 0x2A397, size: 0x8, addend: 0x0, symName: __ZNSt3__117__compressed_pairIPNS_10shared_ptrI6LayoutEENS_9allocatorIS3_EEEC2B8ne180100IDnNS_18__default_init_tagEEEOT_OT0_, symObjAddr: 0x3040, symBinAddr: 0x100006544, symSize: 0x40 }
  - { offset: 0x2A3EF, size: 0x8, addend: 0x0, symName: __ZNSt3__122__compressed_pair_elemIPNS_10shared_ptrI6LayoutEELi0ELb0EEC2B8ne180100IDnvEEOT_, symObjAddr: 0x3080, symBinAddr: 0x100006584, symSize: 0x1C }
  - { offset: 0x2A431, size: 0x8, addend: 0x0, symName: __ZNSt3__122__compressed_pair_elemINS_9allocatorINS_10shared_ptrI6LayoutEEEELi1ELb1EEC2B8ne180100ENS_18__default_init_tagE, symObjAddr: 0x309C, symBinAddr: 0x1000065A0, symSize: 0x2C }
  - { offset: 0x2A465, size: 0x8, addend: 0x0, symName: __ZNSt3__19allocatorINS_10shared_ptrI6LayoutEEEC2B8ne180100Ev, symObjAddr: 0x30C8, symBinAddr: 0x1000065CC, symSize: 0x2C }
  - { offset: 0x2A48F, size: 0x8, addend: 0x0, symName: __ZNSt3__116__non_trivial_ifILb1ENS_9allocatorINS_10shared_ptrI6LayoutEEEEEC2B8ne180100Ev, symObjAddr: 0x30F4, symBinAddr: 0x1000065F8, symSize: 0x14 }
  - { offset: 0x2A4B9, size: 0x8, addend: 0x0, symName: __ZNSt3__112basic_stringIcNS_11char_traitsIcEENS_9allocatorIcEEEC2B8ne180100Ev, symObjAddr: 0x3108, symBinAddr: 0x10000660C, symSize: 0x48 }
  - { offset: 0x2A4E9, size: 0x8, addend: 0x0, symName: __ZNSt3__117__compressed_pairINS_12basic_stringIcNS_11char_traitsIcEENS_9allocatorIcEEE5__repES5_EC1B8ne180100INS_16__value_init_tagENS_18__default_init_tagEEEOT_OT0_, symObjAddr: 0x3150, symBinAddr: 0x100006654, symSize: 0x3C }
  - { offset: 0x2A541, size: 0x8, addend: 0x0, symName: __ZNKSt3__112basic_stringIcNS_11char_traitsIcEENS_9allocatorIcEEE14__annotate_newB8ne180100Em, symObjAddr: 0x318C, symBinAddr: 0x100006690, symSize: 0x14 }
  - { offset: 0x2A576, size: 0x8, addend: 0x0, symName: __ZNSt3__117__compressed_pairINS_12basic_stringIcNS_11char_traitsIcEENS_9allocatorIcEEE5__repES5_EC2B8ne180100INS_16__value_init_tagENS_18__default_init_tagEEEOT_OT0_, symObjAddr: 0x31A0, symBinAddr: 0x1000066A4, symSize: 0x3C }
  - { offset: 0x2A5CE, size: 0x8, addend: 0x0, symName: __ZNSt3__122__compressed_pair_elemINS_12basic_stringIcNS_11char_traitsIcEENS_9allocatorIcEEE5__repELi0ELb0EEC2B8ne180100ENS_16__value_init_tagE, symObjAddr: 0x31DC, symBinAddr: 0x1000066E0, symSize: 0x20 }
  - { offset: 0x2A602, size: 0x8, addend: 0x0, symName: __ZNSt3__122__compressed_pair_elemINS_9allocatorIcEELi1ELb1EEC2B8ne180100ENS_18__default_init_tagE, symObjAddr: 0x31FC, symBinAddr: 0x100006700, symSize: 0x2C }
  - { offset: 0x2A636, size: 0x8, addend: 0x0, symName: __ZNSt3__19allocatorIcEC2B8ne180100Ev, symObjAddr: 0x3228, symBinAddr: 0x10000672C, symSize: 0x2C }
  - { offset: 0x2A660, size: 0x8, addend: 0x0, symName: __ZNSt3__116__non_trivial_ifILb1ENS_9allocatorIcEEEC2B8ne180100Ev, symObjAddr: 0x3254, symBinAddr: 0x100006758, symSize: 0x14 }
  - { offset: 0x2A68A, size: 0x8, addend: 0x0, symName: __ZN5Tvec2IfEC2Ev, symObjAddr: 0x3268, symBinAddr: 0x10000676C, symSize: 0x30 }
  - { offset: 0x2A6B4, size: 0x8, addend: 0x0, symName: __ZNSt3__16vectorINS_10shared_ptrI6LayoutEENS_9allocatorIS3_EEED2B8ne180100Ev, symObjAddr: 0x3298, symBinAddr: 0x10000679C, symSize: 0x44 }
  - { offset: 0x2A6DE, size: 0x8, addend: 0x0, symName: __ZNSt3__16vectorINS_10shared_ptrI6LayoutEENS_9allocatorIS3_EEE16__destroy_vectorC1B8ne180100ERS6_, symObjAddr: 0x32DC, symBinAddr: 0x1000067E0, symSize: 0x34 }
  - { offset: 0x2A717, size: 0x8, addend: 0x0, symName: __ZNSt3__16vectorINS_10shared_ptrI6LayoutEENS_9allocatorIS3_EEE16__destroy_vectorclB8ne180100Ev, symObjAddr: 0x3310, symBinAddr: 0x100006814, symSize: 0x90 }
  - { offset: 0x2A73D, size: 0x8, addend: 0x0, symName: __ZNSt3__16vectorINS_10shared_ptrI6LayoutEENS_9allocatorIS3_EEE16__destroy_vectorC2B8ne180100ERS6_, symObjAddr: 0x33A0, symBinAddr: 0x1000068A4, symSize: 0x20 }
  - { offset: 0x2A776, size: 0x8, addend: 0x0, symName: __ZNSt3__16vectorINS_10shared_ptrI6LayoutEENS_9allocatorIS3_EEE7__clearB8ne180100Ev, symObjAddr: 0x33C0, symBinAddr: 0x1000068C4, symSize: 0x28 }
  - { offset: 0x2A79C, size: 0x8, addend: 0x0, symName: __ZNKSt3__16vectorINS_10shared_ptrI6LayoutEENS_9allocatorIS3_EEE17__annotate_deleteB8ne180100Ev, symObjAddr: 0x33E8, symBinAddr: 0x1000068EC, symSize: 0x10 }
  - { offset: 0x2A7C2, size: 0x8, addend: 0x0, symName: __ZNSt3__116allocator_traitsINS_9allocatorINS_10shared_ptrI6LayoutEEEEE10deallocateB8ne180100ERS5_PS4_m, symObjAddr: 0x33F8, symBinAddr: 0x1000068FC, symSize: 0x34 }
  - { offset: 0x2A804, size: 0x8, addend: 0x0, symName: __ZNSt3__16vectorINS_10shared_ptrI6LayoutEENS_9allocatorIS3_EEE7__allocB8ne180100Ev, symObjAddr: 0x342C, symBinAddr: 0x100006930, symSize: 0x28 }
  - { offset: 0x2A82A, size: 0x8, addend: 0x0, symName: __ZNKSt3__16vectorINS_10shared_ptrI6LayoutEENS_9allocatorIS3_EEE8capacityB8ne180100Ev, symObjAddr: 0x3454, symBinAddr: 0x100006958, symSize: 0x40 }
  - { offset: 0x2A850, size: 0x8, addend: 0x0, symName: __ZNSt3__16vectorINS_10shared_ptrI6LayoutEENS_9allocatorIS3_EEE22__base_destruct_at_endB8ne180100EPS3_, symObjAddr: 0x3494, symBinAddr: 0x100006998, symSize: 0x8C }
  - { offset: 0x2A894, size: 0x8, addend: 0x0, symName: __ZNSt3__116allocator_traitsINS_9allocatorINS_10shared_ptrI6LayoutEEEEE7destroyB8ne180100IS4_vEEvRS5_PT_, symObjAddr: 0x3520, symBinAddr: 0x100006A24, symSize: 0x2C }
  - { offset: 0x2A8D1, size: 0x8, addend: 0x0, symName: __ZNSt3__19allocatorINS_10shared_ptrI6LayoutEEE7destroyB8ne180100EPS3_, symObjAddr: 0x3560, symBinAddr: 0x100006A64, symSize: 0x28 }
  - { offset: 0x2A905, size: 0x8, addend: 0x0, symName: __ZNSt3__19allocatorINS_10shared_ptrI6LayoutEEE10deallocateB8ne180100EPS3_m, symObjAddr: 0x3588, symBinAddr: 0x100006A8C, symSize: 0x40 }
  - { offset: 0x2A947, size: 0x8, addend: 0x0, symName: __ZNSt3__117__compressed_pairIPNS_10shared_ptrI6LayoutEENS_9allocatorIS3_EEE6secondB8ne180100Ev, symObjAddr: 0x36D0, symBinAddr: 0x100006BD4, symSize: 0x24 }
  - { offset: 0x2A96D, size: 0x8, addend: 0x0, symName: __ZNSt3__122__compressed_pair_elemINS_9allocatorINS_10shared_ptrI6LayoutEEEELi1ELb1EE5__getB8ne180100Ev, symObjAddr: 0x36F4, symBinAddr: 0x100006BF8, symSize: 0x14 }
  - { offset: 0x2A993, size: 0x8, addend: 0x0, symName: __ZNKSt3__16vectorINS_10shared_ptrI6LayoutEENS_9allocatorIS3_EEE9__end_capB8ne180100Ev, symObjAddr: 0x3708, symBinAddr: 0x100006C0C, symSize: 0x28 }
  - { offset: 0x2A9B9, size: 0x8, addend: 0x0, symName: __ZNKSt3__117__compressed_pairIPNS_10shared_ptrI6LayoutEENS_9allocatorIS3_EEE5firstB8ne180100Ev, symObjAddr: 0x3730, symBinAddr: 0x100006C34, symSize: 0x24 }
  - { offset: 0x2A9DF, size: 0x8, addend: 0x0, symName: __ZNKSt3__122__compressed_pair_elemIPNS_10shared_ptrI6LayoutEELi0ELb0EE5__getB8ne180100Ev, symObjAddr: 0x3754, symBinAddr: 0x100006C58, symSize: 0x14 }
  - { offset: 0x2AA05, size: 0x8, addend: 0x0, symName: __ZNSt3__16vectorINS_10shared_ptrI7ElementEENS_9allocatorIS3_EEED2B8ne180100Ev, symObjAddr: 0x3768, symBinAddr: 0x100006C6C, symSize: 0x44 }
  - { offset: 0x2AA2F, size: 0x8, addend: 0x0, symName: __ZNSt3__16vectorINS_10shared_ptrI7ElementEENS_9allocatorIS3_EEE16__destroy_vectorC1B8ne180100ERS6_, symObjAddr: 0x37AC, symBinAddr: 0x100006CB0, symSize: 0x34 }
  - { offset: 0x2AA68, size: 0x8, addend: 0x0, symName: __ZNSt3__16vectorINS_10shared_ptrI7ElementEENS_9allocatorIS3_EEE16__destroy_vectorclB8ne180100Ev, symObjAddr: 0x37E0, symBinAddr: 0x100006CE4, symSize: 0x90 }
  - { offset: 0x2AA8E, size: 0x8, addend: 0x0, symName: __ZNSt3__16vectorINS_10shared_ptrI7ElementEENS_9allocatorIS3_EEE16__destroy_vectorC2B8ne180100ERS6_, symObjAddr: 0x3870, symBinAddr: 0x100006D74, symSize: 0x20 }
  - { offset: 0x2AAC7, size: 0x8, addend: 0x0, symName: __ZNSt3__16vectorINS_10shared_ptrI7ElementEENS_9allocatorIS3_EEE7__clearB8ne180100Ev, symObjAddr: 0x3890, symBinAddr: 0x100006D94, symSize: 0x28 }
  - { offset: 0x2AAED, size: 0x8, addend: 0x0, symName: __ZNKSt3__16vectorINS_10shared_ptrI7ElementEENS_9allocatorIS3_EEE17__annotate_deleteB8ne180100Ev, symObjAddr: 0x38B8, symBinAddr: 0x100006DBC, symSize: 0x10 }
  - { offset: 0x2AB13, size: 0x8, addend: 0x0, symName: __ZNSt3__116allocator_traitsINS_9allocatorINS_10shared_ptrI7ElementEEEEE10deallocateB8ne180100ERS5_PS4_m, symObjAddr: 0x38C8, symBinAddr: 0x100006DCC, symSize: 0x34 }
  - { offset: 0x2AB55, size: 0x8, addend: 0x0, symName: __ZNSt3__16vectorINS_10shared_ptrI7ElementEENS_9allocatorIS3_EEE7__allocB8ne180100Ev, symObjAddr: 0x38FC, symBinAddr: 0x100006E00, symSize: 0x28 }
  - { offset: 0x2AB7B, size: 0x8, addend: 0x0, symName: __ZNKSt3__16vectorINS_10shared_ptrI7ElementEENS_9allocatorIS3_EEE8capacityB8ne180100Ev, symObjAddr: 0x3924, symBinAddr: 0x100006E28, symSize: 0x40 }
  - { offset: 0x2ABA1, size: 0x8, addend: 0x0, symName: __ZNSt3__16vectorINS_10shared_ptrI7ElementEENS_9allocatorIS3_EEE22__base_destruct_at_endB8ne180100EPS3_, symObjAddr: 0x3964, symBinAddr: 0x100006E68, symSize: 0x8C }
  - { offset: 0x2ABE5, size: 0x8, addend: 0x0, symName: __ZNSt3__116allocator_traitsINS_9allocatorINS_10shared_ptrI7ElementEEEEE7destroyB8ne180100IS4_vEEvRS5_PT_, symObjAddr: 0x39F0, symBinAddr: 0x100006EF4, symSize: 0x2C }
  - { offset: 0x2AC22, size: 0x8, addend: 0x0, symName: __ZNSt3__19allocatorINS_10shared_ptrI7ElementEEE7destroyB8ne180100EPS3_, symObjAddr: 0x3A30, symBinAddr: 0x100006F34, symSize: 0x28 }
  - { offset: 0x2AC56, size: 0x8, addend: 0x0, symName: __ZNSt3__19allocatorINS_10shared_ptrI7ElementEEE10deallocateB8ne180100EPS3_m, symObjAddr: 0x3A58, symBinAddr: 0x100006F5C, symSize: 0x40 }
  - { offset: 0x2AC98, size: 0x8, addend: 0x0, symName: __ZNSt3__117__compressed_pairIPNS_10shared_ptrI7ElementEENS_9allocatorIS3_EEE6secondB8ne180100Ev, symObjAddr: 0x3A98, symBinAddr: 0x100006F9C, symSize: 0x24 }
  - { offset: 0x2ACBE, size: 0x8, addend: 0x0, symName: __ZNSt3__122__compressed_pair_elemINS_9allocatorINS_10shared_ptrI7ElementEEEELi1ELb1EE5__getB8ne180100Ev, symObjAddr: 0x3ABC, symBinAddr: 0x100006FC0, symSize: 0x14 }
  - { offset: 0x2ACE4, size: 0x8, addend: 0x0, symName: __ZNKSt3__16vectorINS_10shared_ptrI7ElementEENS_9allocatorIS3_EEE9__end_capB8ne180100Ev, symObjAddr: 0x3AD0, symBinAddr: 0x100006FD4, symSize: 0x28 }
  - { offset: 0x2AD0A, size: 0x8, addend: 0x0, symName: __ZNKSt3__117__compressed_pairIPNS_10shared_ptrI7ElementEENS_9allocatorIS3_EEE5firstB8ne180100Ev, symObjAddr: 0x3AF8, symBinAddr: 0x100006FFC, symSize: 0x24 }
  - { offset: 0x2AD30, size: 0x8, addend: 0x0, symName: __ZNKSt3__122__compressed_pair_elemIPNS_10shared_ptrI7ElementEELi0ELb0EE5__getB8ne180100Ev, symObjAddr: 0x3B1C, symBinAddr: 0x100007020, symSize: 0x14 }
  - { offset: 0x2AD56, size: 0x8, addend: 0x0, symName: __ZNSt3__120__shared_ptr_emplaceI6LayoutNS_9allocatorIS1_EEE8_StorageD2B8ne180100Ev, symObjAddr: 0x3B30, symBinAddr: 0x100007034, symSize: 0x2C }
  - { offset: 0x2AD80, size: 0x8, addend: 0x0, symName: __ZNSt3__120__shared_ptr_emplaceI6LayoutNS_9allocatorIS1_EEED2Ev, symObjAddr: 0x3B5C, symBinAddr: 0x100007060, symSize: 0x48 }
  - { offset: 0x2ADAC, size: 0x8, addend: 0x0, symName: __ZNSt3__120__shared_ptr_emplaceI6LayoutNS_9allocatorIS1_EEE21__on_zero_shared_implB8ne180100IS3_Li0EEEvv, symObjAddr: 0x3BA4, symBinAddr: 0x1000070A8, symSize: 0x44 }
  - { offset: 0x2ADFC, size: 0x8, addend: 0x0, symName: __ZNSt3__116allocator_traitsINS_9allocatorI6LayoutEEE7destroyB8ne180100IS2_vEEvRS3_PT_, symObjAddr: 0x3BE8, symBinAddr: 0x1000070EC, symSize: 0x2C }
  - { offset: 0x2AE39, size: 0x8, addend: 0x0, symName: __ZNSt3__19allocatorI6LayoutE7destroyB8ne180100EPS1_, symObjAddr: 0x3C14, symBinAddr: 0x100007118, symSize: 0x28 }
  - { offset: 0x2AE6D, size: 0x8, addend: 0x0, symName: __ZN6LayoutD1Ev, symObjAddr: 0x3C3C, symBinAddr: 0x100007140, symSize: 0x2C }
  - { offset: 0x2AE99, size: 0x8, addend: 0x0, symName: __ZN6LayoutD2Ev, symObjAddr: 0x3C68, symBinAddr: 0x10000716C, symSize: 0x48 }
  - { offset: 0x2AEC5, size: 0x8, addend: 0x0, symName: __ZNSt3__116allocator_traitsINS_9allocatorINS_20__shared_ptr_emplaceI6LayoutNS1_IS3_EEEEEEE10deallocateB8ne180100ERS6_PS5_m, symObjAddr: 0x3CB0, symBinAddr: 0x1000071B4, symSize: 0x34 }
  - { offset: 0x2AF07, size: 0x8, addend: 0x0, symName: __ZNSt3__114pointer_traitsIPNS_20__shared_ptr_emplaceI6LayoutNS_9allocatorIS2_EEEEE10pointer_toB8ne180100ERS5_, symObjAddr: 0x3CE4, symBinAddr: 0x1000071E8, symSize: 0x14 }
  - { offset: 0x2AF2A, size: 0x8, addend: 0x0, symName: __ZNSt3__19allocatorINS_20__shared_ptr_emplaceI6LayoutNS0_IS2_EEEEE10deallocateB8ne180100EPS4_m, symObjAddr: 0x3CF8, symBinAddr: 0x1000071FC, symSize: 0x40 }
  - { offset: 0x2AF6C, size: 0x8, addend: 0x0, symName: __ZNSt3__110shared_ptrI6LayoutE18__enable_weak_thisB8ne180100Ez, symObjAddr: 0x3D38, symBinAddr: 0x10000723C, symSize: 0x10 }
  - { offset: 0x2AF93, size: 0x8, addend: 0x0, symName: __ZNSt3__120__shared_ptr_emplaceI6LayoutNS_9allocatorIS1_EEE8_Storage10__get_elemB8ne180100Ev, symObjAddr: 0x3D48, symBinAddr: 0x10000724C, symSize: 0x3C }
  - { offset: 0x2AFE6, size: 0x8, addend: 0x0, symName: __ZNSt3__117__compressed_pairINS_9allocatorI6LayoutEES2_E17__get_second_baseB8ne180100EPS4_, symObjAddr: 0x3D84, symBinAddr: 0x100007288, symSize: 0x14 }
  - { offset: 0x2B009, size: 0x8, addend: 0x0, symName: __ZNSt3__118__allocation_guardINS_9allocatorINS_20__shared_ptr_emplaceI6LayoutNS1_IS3_EEEEEEED2B8ne180100Ev, symObjAddr: 0x3D98, symBinAddr: 0x10000729C, symSize: 0x2C }
  - { offset: 0x2B033, size: 0x8, addend: 0x0, symName: __ZNSt3__118__allocation_guardINS_9allocatorINS_20__shared_ptr_emplaceI6LayoutNS1_IS3_EEEEEEE9__destroyB8ne180100Ev, symObjAddr: 0x3DC4, symBinAddr: 0x1000072C8, symSize: 0x4C }
  - { offset: 0x2B059, size: 0x8, addend: 0x0, symName: __ZNSt3__19allocatorI6LayoutEC2B8ne180100Ev, symObjAddr: 0x3E10, symBinAddr: 0x100007314, symSize: 0x2C }
  - { offset: 0x2B083, size: 0x8, addend: 0x0, symName: __ZNSt3__116__non_trivial_ifILb1ENS_9allocatorI6LayoutEEEC2B8ne180100Ev, symObjAddr: 0x3E3C, symBinAddr: 0x100007340, symSize: 0x14 }
  - { offset: 0x2B0AD, size: 0x8, addend: 0x0, symName: __ZNSt3__16vectorINS_12basic_stringIcNS_11char_traitsIcEENS_9allocatorIcEEEENS4_IS6_EEED2B8ne180100Ev, symObjAddr: 0x3E50, symBinAddr: 0x100007354, symSize: 0x44 }
  - { offset: 0x2B0D7, size: 0x8, addend: 0x0, symName: __ZNSt3__16vectorINS_12basic_stringIcNS_11char_traitsIcEENS_9allocatorIcEEEENS4_IS6_EEE16__destroy_vectorC1B8ne180100ERS8_, symObjAddr: 0x3E94, symBinAddr: 0x100007398, symSize: 0x34 }
  - { offset: 0x2B110, size: 0x8, addend: 0x0, symName: __ZNSt3__16vectorINS_12basic_stringIcNS_11char_traitsIcEENS_9allocatorIcEEEENS4_IS6_EEE16__destroy_vectorclB8ne180100Ev, symObjAddr: 0x3EC8, symBinAddr: 0x1000073CC, symSize: 0x90 }
  - { offset: 0x2B136, size: 0x8, addend: 0x0, symName: __ZNSt3__16vectorINS_12basic_stringIcNS_11char_traitsIcEENS_9allocatorIcEEEENS4_IS6_EEE16__destroy_vectorC2B8ne180100ERS8_, symObjAddr: 0x3F58, symBinAddr: 0x10000745C, symSize: 0x20 }
  - { offset: 0x2B16F, size: 0x8, addend: 0x0, symName: __ZNSt3__16vectorINS_12basic_stringIcNS_11char_traitsIcEENS_9allocatorIcEEEENS4_IS6_EEE7__clearB8ne180100Ev, symObjAddr: 0x3F78, symBinAddr: 0x10000747C, symSize: 0x28 }
  - { offset: 0x2B195, size: 0x8, addend: 0x0, symName: __ZNKSt3__16vectorINS_12basic_stringIcNS_11char_traitsIcEENS_9allocatorIcEEEENS4_IS6_EEE17__annotate_deleteB8ne180100Ev, symObjAddr: 0x3FA0, symBinAddr: 0x1000074A4, symSize: 0x10 }
  - { offset: 0x2B1BB, size: 0x8, addend: 0x0, symName: __ZNSt3__116allocator_traitsINS_9allocatorINS_12basic_stringIcNS_11char_traitsIcEENS1_IcEEEEEEE10deallocateB8ne180100ERS7_PS6_m, symObjAddr: 0x3FB0, symBinAddr: 0x1000074B4, symSize: 0x34 }
  - { offset: 0x2B1FD, size: 0x8, addend: 0x0, symName: __ZNSt3__16vectorINS_12basic_stringIcNS_11char_traitsIcEENS_9allocatorIcEEEENS4_IS6_EEE7__allocB8ne180100Ev, symObjAddr: 0x3FE4, symBinAddr: 0x1000074E8, symSize: 0x28 }
  - { offset: 0x2B223, size: 0x8, addend: 0x0, symName: __ZNKSt3__16vectorINS_12basic_stringIcNS_11char_traitsIcEENS_9allocatorIcEEEENS4_IS6_EEE8capacityB8ne180100Ev, symObjAddr: 0x400C, symBinAddr: 0x100007510, symSize: 0x40 }
  - { offset: 0x2B249, size: 0x8, addend: 0x0, symName: __ZNSt3__16vectorINS_12basic_stringIcNS_11char_traitsIcEENS_9allocatorIcEEEENS4_IS6_EEE22__base_destruct_at_endB8ne180100EPS6_, symObjAddr: 0x404C, symBinAddr: 0x100007550, symSize: 0x8C }
  - { offset: 0x2B28D, size: 0x8, addend: 0x0, symName: __ZNSt3__116allocator_traitsINS_9allocatorINS_12basic_stringIcNS_11char_traitsIcEENS1_IcEEEEEEE7destroyB8ne180100IS6_vEEvRS7_PT_, symObjAddr: 0x40D8, symBinAddr: 0x1000075DC, symSize: 0x2C }
  - { offset: 0x2B2CA, size: 0x8, addend: 0x0, symName: __ZNSt3__19allocatorINS_12basic_stringIcNS_11char_traitsIcEENS0_IcEEEEE7destroyB8ne180100EPS5_, symObjAddr: 0x4118, symBinAddr: 0x10000761C, symSize: 0x28 }
  - { offset: 0x2B2FE, size: 0x8, addend: 0x0, symName: __ZNSt3__19allocatorINS_12basic_stringIcNS_11char_traitsIcEENS0_IcEEEEE10deallocateB8ne180100EPS5_m, symObjAddr: 0x4140, symBinAddr: 0x100007644, symSize: 0x44 }
  - { offset: 0x2B340, size: 0x8, addend: 0x0, symName: __ZNSt3__117__compressed_pairIPNS_12basic_stringIcNS_11char_traitsIcEENS_9allocatorIcEEEENS4_IS6_EEE6secondB8ne180100Ev, symObjAddr: 0x4184, symBinAddr: 0x100007688, symSize: 0x24 }
  - { offset: 0x2B366, size: 0x8, addend: 0x0, symName: __ZNSt3__122__compressed_pair_elemINS_9allocatorINS_12basic_stringIcNS_11char_traitsIcEENS1_IcEEEEEELi1ELb1EE5__getB8ne180100Ev, symObjAddr: 0x41A8, symBinAddr: 0x1000076AC, symSize: 0x14 }
  - { offset: 0x2B38C, size: 0x8, addend: 0x0, symName: __ZNKSt3__16vectorINS_12basic_stringIcNS_11char_traitsIcEENS_9allocatorIcEEEENS4_IS6_EEE9__end_capB8ne180100Ev, symObjAddr: 0x41BC, symBinAddr: 0x1000076C0, symSize: 0x28 }
  - { offset: 0x2B3B2, size: 0x8, addend: 0x0, symName: __ZNKSt3__117__compressed_pairIPNS_12basic_stringIcNS_11char_traitsIcEENS_9allocatorIcEEEENS4_IS6_EEE5firstB8ne180100Ev, symObjAddr: 0x41E4, symBinAddr: 0x1000076E8, symSize: 0x24 }
  - { offset: 0x2B3D8, size: 0x8, addend: 0x0, symName: __ZNKSt3__122__compressed_pair_elemIPNS_12basic_stringIcNS_11char_traitsIcEENS_9allocatorIcEEEELi0ELb0EE5__getB8ne180100Ev, symObjAddr: 0x4208, symBinAddr: 0x10000770C, symSize: 0x14 }
  - { offset: 0x2B3FE, size: 0x8, addend: 0x0, symName: __ZNSt3__114basic_ofstreamIcNS_11char_traitsIcEEED2Ev, symObjAddr: 0x421C, symBinAddr: 0x100007720, symSize: 0x64 }
  - { offset: 0x2B438, size: 0x8, addend: 0x0, symName: __ZTv0_n24_NSt3__114basic_ofstreamIcNS_11char_traitsIcEEED1Ev, symObjAddr: 0x4280, symBinAddr: 0x100007784, symSize: 0x28 }
  - { offset: 0x2B44F, size: 0x8, addend: 0x0, symName: __ZNSt3__114basic_ifstreamIcNS_11char_traitsIcEEED2Ev, symObjAddr: 0x42A8, symBinAddr: 0x1000077AC, symSize: 0x64 }
  - { offset: 0x2B489, size: 0x8, addend: 0x0, symName: __ZTv0_n24_NSt3__114basic_ifstreamIcNS_11char_traitsIcEEED1Ev, symObjAddr: 0x430C, symBinAddr: 0x100007810, symSize: 0x28 }
  - { offset: 0x2B4A0, size: 0x8, addend: 0x0, symName: __ZNKSt3__114basic_ifstreamIcNS_11char_traitsIcEEE7is_openEv, symObjAddr: 0x4334, symBinAddr: 0x100007838, symSize: 0x2C }
  - { offset: 0x2B4C8, size: 0x8, addend: 0x0, symName: __ZNKSt3__19basic_iosIcNS_11char_traitsIcEEEcvbB8ne180100Ev, symObjAddr: 0x43BC, symBinAddr: 0x1000078C0, symSize: 0x2C }
  - { offset: 0x2B4EE, size: 0x8, addend: 0x0, symName: __ZNSt3__112basic_stringIcNS_11char_traitsIcEENS_9allocatorIcEEE5beginB8ne180100Ev, symObjAddr: 0x43E8, symBinAddr: 0x1000078EC, symSize: 0x4C }
  - { offset: 0x2B514, size: 0x8, addend: 0x0, symName: __ZNSt3__112basic_stringIcNS_11char_traitsIcEENS_9allocatorIcEEE3endB8ne180100Ev, symObjAddr: 0x4434, symBinAddr: 0x100007938, symSize: 0x54 }
  - { offset: 0x2B53A, size: 0x8, addend: 0x0, symName: __ZNKSt3__111__wrap_iterIPcEdeB8ne180100Ev, symObjAddr: 0x44BC, symBinAddr: 0x1000079C0, symSize: 0x18 }
  - { offset: 0x2B55F, size: 0x8, addend: 0x0, symName: __Z7isspacei, symObjAddr: 0x44D4, symBinAddr: 0x1000079D8, symSize: 0x28 }
  - { offset: 0x2B58E, size: 0x8, addend: 0x0, symName: __ZNSt3__112basic_stringIcNS_11char_traitsIcEENS_9allocatorIcEEEpLB8ne180100Ec, symObjAddr: 0x44FC, symBinAddr: 0x100007A00, symSize: 0x34 }
  - { offset: 0x2B5C3, size: 0x8, addend: 0x0, symName: __ZNSt3__111__wrap_iterIPcEppB8ne180100Ev, symObjAddr: 0x4530, symBinAddr: 0x100007A34, symSize: 0x20 }
  - { offset: 0x2B5E9, size: 0x8, addend: 0x0, symName: __ZNKSt3__112basic_stringIcNS_11char_traitsIcEENS_9allocatorIcEEE4sizeB8ne180100Ev, symObjAddr: 0x4550, symBinAddr: 0x100007A54, symSize: 0x54 }
  - { offset: 0x2B60F, size: 0x8, addend: 0x0, symName: __ZNSt3__112basic_stringIcNS_11char_traitsIcEENS_9allocatorIcEEEixB8ne180100Em, symObjAddr: 0x45A4, symBinAddr: 0x100007AA8, symSize: 0x48 }
  - { offset: 0x2B644, size: 0x8, addend: 0x0, symName: __ZNSt3__16vectorINS_12basic_stringIcNS_11char_traitsIcEENS_9allocatorIcEEEENS4_IS6_EEE9push_backB8ne180100ERKS6_, symObjAddr: 0x45EC, symBinAddr: 0x100007AF0, symSize: 0x90 }
  - { offset: 0x2B68A, size: 0x8, addend: 0x0, symName: __ZN7GUIFile11parseStringEv, symObjAddr: 0x467C, symBinAddr: 0x100007B80, symSize: 0x1374 }
  - { offset: 0x2B862, size: 0x8, addend: 0x0, symName: __ZNSt3__114basic_ifstreamIcNS_11char_traitsIcEEE5closeEv, symObjAddr: 0x59F0, symBinAddr: 0x100008EF4, symSize: 0x58 }
  - { offset: 0x2B88A, size: 0x8, addend: 0x0, symName: __ZNKSt3__113basic_filebufIcNS_11char_traitsIcEEE7is_openEv, symObjAddr: 0x5A48, symBinAddr: 0x100008F4C, symSize: 0x24 }
  - { offset: 0x2B8B2, size: 0x8, addend: 0x0, symName: __ZNKSt3__19basic_iosIcNS_11char_traitsIcEEE5widenB8ne180100Ec, symObjAddr: 0x5CA4, symBinAddr: 0x1000091A8, symSize: 0x84 }
  - { offset: 0x2B90C, size: 0x8, addend: 0x0, symName: __ZNKSt3__113basic_istreamIcNS_11char_traitsIcEEE6sentrycvbB8ne180100Ev, symObjAddr: 0x5D28, symBinAddr: 0x10000922C, symSize: 0x1C }
  - { offset: 0x2B932, size: 0x8, addend: 0x0, symName: __ZNSt3__112basic_stringIcNS_11char_traitsIcEENS_9allocatorIcEEE5clearB8ne180100Ev, symObjAddr: 0x5D44, symBinAddr: 0x100009248, symSize: 0x94 }
  - { offset: 0x2B969, size: 0x8, addend: 0x0, symName: __ZNKSt3__19basic_iosIcNS_11char_traitsIcEEE5rdbufB8ne180100Ev, symObjAddr: 0x5DD8, symBinAddr: 0x1000092DC, symSize: 0x24 }
  - { offset: 0x2B991, size: 0x8, addend: 0x0, symName: __ZNSt3__115basic_streambufIcNS_11char_traitsIcEEE6sbumpcB8ne180100Ev, symObjAddr: 0x5DFC, symBinAddr: 0x100009300, symSize: 0x78 }
  - { offset: 0x2B9B7, size: 0x8, addend: 0x0, symName: __ZNSt3__111char_traitsIcE11eq_int_typeB8ne180100Eii, symObjAddr: 0x5E74, symBinAddr: 0x100009378, symSize: 0x28 }
  - { offset: 0x2B9EA, size: 0x8, addend: 0x0, symName: __ZNSt3__111char_traitsIcE12to_char_typeB8ne180100Ei, symObjAddr: 0x5E9C, symBinAddr: 0x1000093A0, symSize: 0x18 }
  - { offset: 0x2BA0E, size: 0x8, addend: 0x0, symName: __ZNSt3__111char_traitsIcE2eqEcc, symObjAddr: 0x5EB4, symBinAddr: 0x1000093B8, symSize: 0x28 }
  - { offset: 0x2BA3F, size: 0x8, addend: 0x0, symName: __ZNKSt3__112basic_stringIcNS_11char_traitsIcEENS_9allocatorIcEEE8max_sizeB8ne180100Ev, symObjAddr: 0x5EDC, symBinAddr: 0x1000093E0, symSize: 0xAC }
  - { offset: 0x2BA91, size: 0x8, addend: 0x0, symName: __ZNSt3__18ios_base18__setstate_nothrowB8ne180100Ej, symObjAddr: 0x5F88, symBinAddr: 0x10000948C, symSize: 0x64 }
  - { offset: 0x2BAC6, size: 0x8, addend: 0x0, symName: __ZNKSt3__19basic_iosIcNS_11char_traitsIcEEE10exceptionsB8ne180100Ev, symObjAddr: 0x5FEC, symBinAddr: 0x1000094F0, symSize: 0x24 }
  - { offset: 0x2BAEC, size: 0x8, addend: 0x0, symName: __ZNSt3__19basic_iosIcNS_11char_traitsIcEEE8setstateB8ne180100Ej, symObjAddr: 0x6010, symBinAddr: 0x100009514, symSize: 0x2C }
  - { offset: 0x2BB21, size: 0x8, addend: 0x0, symName: __ZNKSt3__112basic_stringIcNS_11char_traitsIcEENS_9allocatorIcEEE9__is_longB8ne180100Ev, symObjAddr: 0x603C, symBinAddr: 0x100009540, symSize: 0x38 }
  - { offset: 0x2BB47, size: 0x8, addend: 0x0, symName: __ZNSt3__111char_traitsIcE6assignB8ne180100ERcRKc, symObjAddr: 0x6074, symBinAddr: 0x100009578, symSize: 0x24 }
  - { offset: 0x2BB78, size: 0x8, addend: 0x0, symName: __ZNSt3__112basic_stringIcNS_11char_traitsIcEENS_9allocatorIcEEE18__get_long_pointerB8ne180100Ev, symObjAddr: 0x6098, symBinAddr: 0x10000959C, symSize: 0x28 }
  - { offset: 0x2BB9E, size: 0x8, addend: 0x0, symName: __ZNSt3__112basic_stringIcNS_11char_traitsIcEENS_9allocatorIcEEE15__set_long_sizeB8ne180100Em, symObjAddr: 0x60C0, symBinAddr: 0x1000095C4, symSize: 0x38 }
  - { offset: 0x2BBD3, size: 0x8, addend: 0x0, symName: __ZNSt3__112basic_stringIcNS_11char_traitsIcEENS_9allocatorIcEEE19__get_short_pointerB8ne180100Ev, symObjAddr: 0x60F8, symBinAddr: 0x1000095FC, symSize: 0x28 }
  - { offset: 0x2BBF9, size: 0x8, addend: 0x0, symName: __ZNSt3__112basic_stringIcNS_11char_traitsIcEENS_9allocatorIcEEE16__set_short_sizeB8ne180100Em, symObjAddr: 0x6120, symBinAddr: 0x100009624, symSize: 0x78 }
  - { offset: 0x2BC2E, size: 0x8, addend: 0x0, symName: __ZNKSt3__112basic_stringIcNS_11char_traitsIcEENS_9allocatorIcEEE17__annotate_shrinkB8ne180100Em, symObjAddr: 0x6198, symBinAddr: 0x10000969C, symSize: 0x14 }
  - { offset: 0x2BC63, size: 0x8, addend: 0x0, symName: __ZNKSt3__117__compressed_pairINS_12basic_stringIcNS_11char_traitsIcEENS_9allocatorIcEEE5__repES5_E5firstB8ne180100Ev, symObjAddr: 0x61AC, symBinAddr: 0x1000096B0, symSize: 0x24 }
  - { offset: 0x2BC89, size: 0x8, addend: 0x0, symName: __ZNKSt3__122__compressed_pair_elemINS_12basic_stringIcNS_11char_traitsIcEENS_9allocatorIcEEE5__repELi0ELb0EE5__getB8ne180100Ev, symObjAddr: 0x61D0, symBinAddr: 0x1000096D4, symSize: 0x14 }
  - { offset: 0x2BCAF, size: 0x8, addend: 0x0, symName: __ZNSt3__117__compressed_pairINS_12basic_stringIcNS_11char_traitsIcEENS_9allocatorIcEEE5__repES5_E5firstB8ne180100Ev, symObjAddr: 0x61E4, symBinAddr: 0x1000096E8, symSize: 0x24 }
  - { offset: 0x2BCD5, size: 0x8, addend: 0x0, symName: __ZNSt3__122__compressed_pair_elemINS_12basic_stringIcNS_11char_traitsIcEENS_9allocatorIcEEE5__repELi0ELb0EE5__getB8ne180100Ev, symObjAddr: 0x6208, symBinAddr: 0x10000970C, symSize: 0x14 }
  - { offset: 0x2BCFB, size: 0x8, addend: 0x0, symName: __ZNSt3__114pointer_traitsIPcE10pointer_toB8ne180100ERc, symObjAddr: 0x621C, symBinAddr: 0x100009720, symSize: 0x14 }
  - { offset: 0x2BD1E, size: 0x8, addend: 0x0, symName: __ZNKSt3__18ios_base5rdbufB8ne180100Ev, symObjAddr: 0x6230, symBinAddr: 0x100009734, symSize: 0x18 }
  - { offset: 0x2BD44, size: 0x8, addend: 0x0, symName: __ZNSt3__111char_traitsIcE11to_int_typeB8ne180100Ec, symObjAddr: 0x6248, symBinAddr: 0x10000974C, symSize: 0x14 }
  - { offset: 0x2BD73, size: 0x8, addend: 0x0, symName: __ZNSt3__116allocator_traitsINS_9allocatorIcEEE8max_sizeB8ne180100IS2_vEEmRKS2_, symObjAddr: 0x625C, symBinAddr: 0x100009760, symSize: 0x24 }
  - { offset: 0x2BDA1, size: 0x8, addend: 0x0, symName: __ZNKSt3__112basic_stringIcNS_11char_traitsIcEENS_9allocatorIcEEE7__allocB8ne180100Ev, symObjAddr: 0x6280, symBinAddr: 0x100009784, symSize: 0x24 }
  - { offset: 0x2BDC7, size: 0x8, addend: 0x0, symName: __ZNSt3__114numeric_limitsImE3maxB8ne180100Ev, symObjAddr: 0x62A4, symBinAddr: 0x1000097A8, symSize: 0x14 }
  - { offset: 0x2BDDB, size: 0x8, addend: 0x0, symName: __ZNKSt3__19allocatorIcE8max_sizeB8ne180100Ev, symObjAddr: 0x62B8, symBinAddr: 0x1000097BC, symSize: 0x14 }
  - { offset: 0x2BE01, size: 0x8, addend: 0x0, symName: __ZNKSt3__117__compressed_pairINS_12basic_stringIcNS_11char_traitsIcEENS_9allocatorIcEEE5__repES5_E6secondB8ne180100Ev, symObjAddr: 0x62CC, symBinAddr: 0x1000097D0, symSize: 0x24 }
  - { offset: 0x2BE27, size: 0x8, addend: 0x0, symName: __ZNKSt3__122__compressed_pair_elemINS_9allocatorIcEELi1ELb1EE5__getB8ne180100Ev, symObjAddr: 0x62F0, symBinAddr: 0x1000097F4, symSize: 0x14 }
  - { offset: 0x2BE4D, size: 0x8, addend: 0x0, symName: __ZNSt3__123__libcpp_numeric_limitsImLb1EE3maxB8ne180100Ev, symObjAddr: 0x6304, symBinAddr: 0x100009808, symSize: 0x8 }
  - { offset: 0x2BE61, size: 0x8, addend: 0x0, symName: __ZNKSt3__18ios_base10exceptionsB8ne180100Ev, symObjAddr: 0x630C, symBinAddr: 0x100009810, symSize: 0x18 }
  - { offset: 0x2BE89, size: 0x8, addend: 0x0, symName: __ZNSt3__18ios_base8setstateB8ne180100Ej, symObjAddr: 0x6324, symBinAddr: 0x100009828, symSize: 0x34 }
  - { offset: 0x2BF04, size: 0x8, addend: 0x0, symName: __ZNKSt3__15ctypeIcE5widenB8ne180100Ec, symObjAddr: 0x6384, symBinAddr: 0x100009888, symSize: 0x38 }
  - { offset: 0x2BF39, size: 0x8, addend: 0x0, symName: __ZNKSt3__19basic_iosIcNS_11char_traitsIcEEE4failB8ne180100Ev, symObjAddr: 0x63BC, symBinAddr: 0x1000098C0, symSize: 0x28 }
  - { offset: 0x2BF5F, size: 0x8, addend: 0x0, symName: __ZNKSt3__18ios_base4failB8ne180100Ev, symObjAddr: 0x63E4, symBinAddr: 0x1000098E8, symSize: 0x28 }
  - { offset: 0x2BF87, size: 0x8, addend: 0x0, symName: __ZNSt3__112basic_stringIcNS_11char_traitsIcEENS_9allocatorIcEEE15__make_iteratorB8ne180100EPc, symObjAddr: 0x640C, symBinAddr: 0x100009910, symSize: 0x30 }
  - { offset: 0x2BFBC, size: 0x8, addend: 0x0, symName: __ZNSt3__112basic_stringIcNS_11char_traitsIcEENS_9allocatorIcEEE13__get_pointerB8ne180100Ev, symObjAddr: 0x643C, symBinAddr: 0x100009940, symSize: 0x54 }
  - { offset: 0x2BFE2, size: 0x8, addend: 0x0, symName: __ZNSt3__111__wrap_iterIPcEC1B8ne180100ES1_, symObjAddr: 0x6490, symBinAddr: 0x100009994, symSize: 0x34 }
  - { offset: 0x2C01A, size: 0x8, addend: 0x0, symName: __ZNSt3__111__wrap_iterIPcEC2B8ne180100ES1_, symObjAddr: 0x64C4, symBinAddr: 0x1000099C8, symSize: 0x20 }
  - { offset: 0x2C052, size: 0x8, addend: 0x0, symName: __ZNKSt3__111__wrap_iterIPcE4baseB8ne180100Ev, symObjAddr: 0x652C, symBinAddr: 0x100009A30, symSize: 0x18 }
  - { offset: 0x2C077, size: 0x8, addend: 0x0, symName: __Z8__istypeim, symObjAddr: 0x6544, symBinAddr: 0x100009A48, symSize: 0x84 }
  - { offset: 0x2C0B1, size: 0x8, addend: 0x0, symName: __Z7isasciii, symObjAddr: 0x65C8, symBinAddr: 0x100009ACC, symSize: 0x24 }
  - { offset: 0x2C0DE, size: 0x8, addend: 0x0, symName: __ZNKSt3__112basic_stringIcNS_11char_traitsIcEENS_9allocatorIcEEE15__get_long_sizeB8ne180100Ev, symObjAddr: 0x65EC, symBinAddr: 0x100009AF0, symSize: 0x28 }
  - { offset: 0x2C104, size: 0x8, addend: 0x0, symName: __ZNKSt3__112basic_stringIcNS_11char_traitsIcEENS_9allocatorIcEEE16__get_short_sizeB8ne180100Ev, symObjAddr: 0x6614, symBinAddr: 0x100009B18, symSize: 0x34 }
  - { offset: 0x2C12A, size: 0x8, addend: 0x0, symName: __ZNSt3__112basic_stringIcNS_11char_traitsIcEENS_9allocatorIcEEE13__fits_in_ssoB8ne180100Em, symObjAddr: 0x6648, symBinAddr: 0x100009B4C, symSize: 0x20 }
  - { offset: 0x2C14E, size: 0x8, addend: 0x0, symName: __ZNSt3__16vectorINS_12basic_stringIcNS_11char_traitsIcEENS_9allocatorIcEEEENS4_IS6_EEE9__end_capB8ne180100Ev, symObjAddr: 0x6668, symBinAddr: 0x100009B6C, symSize: 0x28 }
  - { offset: 0x2C174, size: 0x8, addend: 0x0, symName: __ZNSt3__16vectorINS_12basic_stringIcNS_11char_traitsIcEENS_9allocatorIcEEEENS4_IS6_EEE22__construct_one_at_endB8ne180100IJRKS6_EEEvDpOT_, symObjAddr: 0x6690, symBinAddr: 0x100009B94, symSize: 0x90 }
  - { offset: 0x2C1C3, size: 0x8, addend: 0x0, symName: __ZNSt3__16vectorINS_12basic_stringIcNS_11char_traitsIcEENS_9allocatorIcEEEENS4_IS6_EEE21__push_back_slow_pathIRKS6_EEPS6_OT_, symObjAddr: 0x6720, symBinAddr: 0x100009C24, symSize: 0xE8 }
  - { offset: 0x2C221, size: 0x8, addend: 0x0, symName: __ZNSt3__117__compressed_pairIPNS_12basic_stringIcNS_11char_traitsIcEENS_9allocatorIcEEEENS4_IS6_EEE5firstB8ne180100Ev, symObjAddr: 0x6808, symBinAddr: 0x100009D0C, symSize: 0x24 }
  - { offset: 0x2C247, size: 0x8, addend: 0x0, symName: __ZNSt3__122__compressed_pair_elemIPNS_12basic_stringIcNS_11char_traitsIcEENS_9allocatorIcEEEELi0ELb0EE5__getB8ne180100Ev, symObjAddr: 0x682C, symBinAddr: 0x100009D30, symSize: 0x14 }
  - { offset: 0x2C289, size: 0x8, addend: 0x0, symName: __ZNSt3__16vectorINS_12basic_stringIcNS_11char_traitsIcEENS_9allocatorIcEEEENS4_IS6_EEE21_ConstructTransactionC1B8ne180100ERS8_m, symObjAddr: 0x6840, symBinAddr: 0x100009D44, symSize: 0x3C }
  - { offset: 0x2C2D1, size: 0x8, addend: 0x0, symName: __ZNSt3__116allocator_traitsINS_9allocatorINS_12basic_stringIcNS_11char_traitsIcEENS1_IcEEEEEEE9constructB8ne180100IS6_JRKS6_EvEEvRS7_PT_DpOT0_, symObjAddr: 0x687C, symBinAddr: 0x100009D80, symSize: 0x34 }
  - { offset: 0x2C328, size: 0x8, addend: 0x0, symName: __ZNSt3__16vectorINS_12basic_stringIcNS_11char_traitsIcEENS_9allocatorIcEEEENS4_IS6_EEE21_ConstructTransactionD1B8ne180100Ev, symObjAddr: 0x68B0, symBinAddr: 0x100009DB4, symSize: 0x2C }
  - { offset: 0x2C352, size: 0x8, addend: 0x0, symName: __ZNSt3__16vectorINS_12basic_stringIcNS_11char_traitsIcEENS_9allocatorIcEEEENS4_IS6_EEE21_ConstructTransactionC2B8ne180100ERS8_m, symObjAddr: 0x68DC, symBinAddr: 0x100009DE0, symSize: 0x4C }
  - { offset: 0x2C39A, size: 0x8, addend: 0x0, symName: __ZNSt3__19allocatorINS_12basic_stringIcNS_11char_traitsIcEENS0_IcEEEEE9constructB8ne180100IS5_JRKS5_EEEvPT_DpOT0_, symObjAddr: 0x6928, symBinAddr: 0x100009E2C, symSize: 0x30 }
  - { offset: 0x2C3F0, size: 0x8, addend: 0x0, symName: __ZNSt3__16vectorINS_12basic_stringIcNS_11char_traitsIcEENS_9allocatorIcEEEENS4_IS6_EEE21_ConstructTransactionD2B8ne180100Ev, symObjAddr: 0x6958, symBinAddr: 0x100009E5C, symSize: 0x20 }
  - { offset: 0x2C41A, size: 0x8, addend: 0x0, symName: __ZNKSt3__16vectorINS_12basic_stringIcNS_11char_traitsIcEENS_9allocatorIcEEEENS4_IS6_EEE11__recommendB8ne180100Em, symObjAddr: 0x6978, symBinAddr: 0x100009E7C, symSize: 0xB4 }
  - { offset: 0x2C46F, size: 0x8, addend: 0x0, symName: __ZNKSt3__16vectorINS_12basic_stringIcNS_11char_traitsIcEENS_9allocatorIcEEEENS4_IS6_EEE4sizeB8ne180100Ev, symObjAddr: 0x6A2C, symBinAddr: 0x100009F30, symSize: 0x28 }
  - { offset: 0x2C495, size: 0x8, addend: 0x0, symName: __ZNSt3__114__split_bufferINS_12basic_stringIcNS_11char_traitsIcEENS_9allocatorIcEEEERNS4_IS6_EEEC1EmmS8_, symObjAddr: 0x6A54, symBinAddr: 0x100009F58, symSize: 0x44 }
  - { offset: 0x2C4EB, size: 0x8, addend: 0x0, symName: __ZNSt3__114__split_bufferINS_12basic_stringIcNS_11char_traitsIcEENS_9allocatorIcEEEERNS4_IS6_EEED1Ev, symObjAddr: 0x6BA8, symBinAddr: 0x10000A0AC, symSize: 0x2C }
  - { offset: 0x2C517, size: 0x8, addend: 0x0, symName: __ZNKSt3__16vectorINS_12basic_stringIcNS_11char_traitsIcEENS_9allocatorIcEEEENS4_IS6_EEE8max_sizeEv, symObjAddr: 0x6BD4, symBinAddr: 0x10000A0D8, symSize: 0x60 }
  - { offset: 0x2C53F, size: 0x8, addend: 0x0, symName: __ZNKSt3__16vectorINS_12basic_stringIcNS_11char_traitsIcEENS_9allocatorIcEEEENS4_IS6_EEE20__throw_length_errorB8ne180100Ev, symObjAddr: 0x6C34, symBinAddr: 0x10000A138, symSize: 0x1C }
  - { offset: 0x2C570, size: 0x8, addend: 0x0, symName: __ZNSt3__116allocator_traitsINS_9allocatorINS_12basic_stringIcNS_11char_traitsIcEENS1_IcEEEEEEE8max_sizeB8ne180100IS7_vEEmRKS7_, symObjAddr: 0x6CA8, symBinAddr: 0x10000A1AC, symSize: 0x24 }
  - { offset: 0x2C59E, size: 0x8, addend: 0x0, symName: __ZNKSt3__16vectorINS_12basic_stringIcNS_11char_traitsIcEENS_9allocatorIcEEEENS4_IS6_EEE7__allocB8ne180100Ev, symObjAddr: 0x6CCC, symBinAddr: 0x10000A1D0, symSize: 0x28 }
  - { offset: 0x2C5C4, size: 0x8, addend: 0x0, symName: __ZNSt3__114numeric_limitsIlE3maxB8ne180100Ev, symObjAddr: 0x6CF4, symBinAddr: 0x10000A1F8, symSize: 0x14 }
  - { offset: 0x2C5E3, size: 0x8, addend: 0x0, symName: __ZNKSt3__16__lessIvvEclB8ne180100ImmEEbRKT_RKT0_, symObjAddr: 0x6D5C, symBinAddr: 0x10000A260, symSize: 0x34 }
  - { offset: 0x2C637, size: 0x8, addend: 0x0, symName: __ZNKSt3__19allocatorINS_12basic_stringIcNS_11char_traitsIcEENS0_IcEEEEE8max_sizeB8ne180100Ev, symObjAddr: 0x6D90, symBinAddr: 0x10000A294, symSize: 0x18 }
  - { offset: 0x2C65D, size: 0x8, addend: 0x0, symName: __ZNKSt3__117__compressed_pairIPNS_12basic_stringIcNS_11char_traitsIcEENS_9allocatorIcEEEENS4_IS6_EEE6secondB8ne180100Ev, symObjAddr: 0x6DA8, symBinAddr: 0x10000A2AC, symSize: 0x24 }
  - { offset: 0x2C683, size: 0x8, addend: 0x0, symName: __ZNKSt3__122__compressed_pair_elemINS_9allocatorINS_12basic_stringIcNS_11char_traitsIcEENS1_IcEEEEEELi1ELb1EE5__getB8ne180100Ev, symObjAddr: 0x6DCC, symBinAddr: 0x10000A2D0, symSize: 0x14 }
  - { offset: 0x2C6A9, size: 0x8, addend: 0x0, symName: __ZNSt3__123__libcpp_numeric_limitsIlLb1EE3maxB8ne180100Ev, symObjAddr: 0x6DE0, symBinAddr: 0x10000A2E4, symSize: 0x8 }
  - { offset: 0x2C6BD, size: 0x8, addend: 0x0, symName: __ZNSt12length_errorC1B8ne180100EPKc, symObjAddr: 0x6E4C, symBinAddr: 0x10000A350, symSize: 0x34 }
  - { offset: 0x2C6F5, size: 0x8, addend: 0x0, symName: __ZNSt12length_errorC2B8ne180100EPKc, symObjAddr: 0x6E80, symBinAddr: 0x10000A384, symSize: 0x44 }
  - { offset: 0x2C72D, size: 0x8, addend: 0x0, symName: __ZNSt3__114__split_bufferINS_12basic_stringIcNS_11char_traitsIcEENS_9allocatorIcEEEERNS4_IS6_EEEC2EmmS8_, symObjAddr: 0x6F18, symBinAddr: 0x10000A41C, symSize: 0xE0 }
  - { offset: 0x2C7A0, size: 0x8, addend: 0x0, symName: __ZNSt3__117__compressed_pairIPNS_12basic_stringIcNS_11char_traitsIcEENS_9allocatorIcEEEERNS4_IS6_EEEC1B8ne180100IDnS9_EEOT_OT0_, symObjAddr: 0x6FF8, symBinAddr: 0x10000A4FC, symSize: 0x3C }
  - { offset: 0x2C7F8, size: 0x8, addend: 0x0, symName: __ZNSt3__114__split_bufferINS_12basic_stringIcNS_11char_traitsIcEENS_9allocatorIcEEEERNS4_IS6_EEE7__allocB8ne180100Ev, symObjAddr: 0x7074, symBinAddr: 0x10000A578, symSize: 0x28 }
  - { offset: 0x2C81E, size: 0x8, addend: 0x0, symName: __ZNSt3__114__split_bufferINS_12basic_stringIcNS_11char_traitsIcEENS_9allocatorIcEEEERNS4_IS6_EEE9__end_capB8ne180100Ev, symObjAddr: 0x709C, symBinAddr: 0x10000A5A0, symSize: 0x28 }
  - { offset: 0x2C844, size: 0x8, addend: 0x0, symName: __ZNSt3__117__compressed_pairIPNS_12basic_stringIcNS_11char_traitsIcEENS_9allocatorIcEEEERNS4_IS6_EEEC2B8ne180100IDnS9_EEOT_OT0_, symObjAddr: 0x70C4, symBinAddr: 0x10000A5C8, symSize: 0x48 }
  - { offset: 0x2C89C, size: 0x8, addend: 0x0, symName: __ZNSt3__122__compressed_pair_elemIRNS_9allocatorINS_12basic_stringIcNS_11char_traitsIcEENS1_IcEEEEEELi1ELb0EEC2B8ne180100IS8_vEEOT_, symObjAddr: 0x710C, symBinAddr: 0x10000A610, symSize: 0x20 }
  - { offset: 0x2C8DE, size: 0x8, addend: 0x0, symName: __ZNSt3__19allocatorINS_12basic_stringIcNS_11char_traitsIcEENS0_IcEEEEE8allocateB8ne180100Em, symObjAddr: 0x712C, symBinAddr: 0x10000A630, symSize: 0x5C }
  - { offset: 0x2C912, size: 0x8, addend: 0x0, symName: __ZNSt3__117__compressed_pairIPNS_12basic_stringIcNS_11char_traitsIcEENS_9allocatorIcEEEERNS4_IS6_EEE6secondB8ne180100Ev, symObjAddr: 0x7188, symBinAddr: 0x10000A68C, symSize: 0x28 }
  - { offset: 0x2C938, size: 0x8, addend: 0x0, symName: __ZNSt3__122__compressed_pair_elemIRNS_9allocatorINS_12basic_stringIcNS_11char_traitsIcEENS1_IcEEEEEELi1ELb0EE5__getB8ne180100Ev, symObjAddr: 0x71B0, symBinAddr: 0x10000A6B4, symSize: 0x18 }
  - { offset: 0x2C95E, size: 0x8, addend: 0x0, symName: __ZNSt3__117__compressed_pairIPNS_12basic_stringIcNS_11char_traitsIcEENS_9allocatorIcEEEERNS4_IS6_EEE5firstB8ne180100Ev, symObjAddr: 0x71C8, symBinAddr: 0x10000A6CC, symSize: 0x24 }
  - { offset: 0x2C984, size: 0x8, addend: 0x0, symName: __ZNSt3__116reverse_iteratorIPNS_12basic_stringIcNS_11char_traitsIcEENS_9allocatorIcEEEEEC1B8ne180100ES7_, symObjAddr: 0x7318, symBinAddr: 0x10000A81C, symSize: 0x34 }
  - { offset: 0x2C9BC, size: 0x8, addend: 0x0, symName: __ZNKSt3__116reverse_iteratorIPNS_12basic_stringIcNS_11char_traitsIcEENS_9allocatorIcEEEEE4baseB8ne180100Ev, symObjAddr: 0x734C, symBinAddr: 0x10000A850, symSize: 0x18 }
  - { offset: 0x2C9E2, size: 0x8, addend: 0x0, symName: __ZNKSt3__16vectorINS_12basic_stringIcNS_11char_traitsIcEENS_9allocatorIcEEEENS4_IS6_EEE14__annotate_newB8ne180100Em, symObjAddr: 0x73A0, symBinAddr: 0x10000A8A4, symSize: 0x14 }
  - { offset: 0x2CA17, size: 0x8, addend: 0x0, symName: __ZNSt3__129_AllocatorDestroyRangeReverseINS_9allocatorINS_12basic_stringIcNS_11char_traitsIcEENS1_IcEEEEEENS_16reverse_iteratorIPS6_EEEC1B8ne180100ERS7_RSA_SD_, symObjAddr: 0x7400, symBinAddr: 0x10000A904, symSize: 0x44 }
  - { offset: 0x2CA74, size: 0x8, addend: 0x0, symName: __ZNSt3__116allocator_traitsINS_9allocatorINS_12basic_stringIcNS_11char_traitsIcEENS1_IcEEEEEEE9constructB8ne180100IS6_JS6_EvEEvRS7_PT_DpOT0_, symObjAddr: 0x748C, symBinAddr: 0x10000A990, symSize: 0x34 }
  - { offset: 0x2CACB, size: 0x8, addend: 0x0, symName: __ZNKSt3__116reverse_iteratorIPNS_12basic_stringIcNS_11char_traitsIcEENS_9allocatorIcEEEEEdeB8ne180100Ev, symObjAddr: 0x74E4, symBinAddr: 0x10000A9E8, symSize: 0x28 }
  - { offset: 0x2CAFF, size: 0x8, addend: 0x0, symName: __ZNSt3__116reverse_iteratorIPNS_12basic_stringIcNS_11char_traitsIcEENS_9allocatorIcEEEEEppB8ne180100Ev, symObjAddr: 0x750C, symBinAddr: 0x10000AA10, symSize: 0x20 }
  - { offset: 0x2CB25, size: 0x8, addend: 0x0, symName: __ZNSt3__128__exception_guard_exceptionsINS_29_AllocatorDestroyRangeReverseINS_9allocatorINS_12basic_stringIcNS_11char_traitsIcEENS2_IcEEEEEENS_16reverse_iteratorIPS7_EEEEE10__completeB8ne180100Ev, symObjAddr: 0x752C, symBinAddr: 0x10000AA30, symSize: 0x1C }
  - { offset: 0x2CB4B, size: 0x8, addend: 0x0, symName: __ZNSt3__128__exception_guard_exceptionsINS_29_AllocatorDestroyRangeReverseINS_9allocatorINS_12basic_stringIcNS_11char_traitsIcEENS2_IcEEEEEENS_16reverse_iteratorIPS7_EEEEED1B8ne180100Ev, symObjAddr: 0x7548, symBinAddr: 0x10000AA4C, symSize: 0x2C }
  - { offset: 0x2CB75, size: 0x8, addend: 0x0, symName: __ZNSt3__128__exception_guard_exceptionsINS_29_AllocatorDestroyRangeReverseINS_9allocatorINS_12basic_stringIcNS_11char_traitsIcEENS2_IcEEEEEENS_16reverse_iteratorIPS7_EEEEEC1B8ne180100ESC_, symObjAddr: 0x7574, symBinAddr: 0x10000AA78, symSize: 0x34 }
  - { offset: 0x2CBAE, size: 0x8, addend: 0x0, symName: __ZNSt3__128__exception_guard_exceptionsINS_29_AllocatorDestroyRangeReverseINS_9allocatorINS_12basic_stringIcNS_11char_traitsIcEENS2_IcEEEEEENS_16reverse_iteratorIPS7_EEEEEC2B8ne180100ESC_, symObjAddr: 0x75A8, symBinAddr: 0x10000AAAC, symSize: 0x30 }
  - { offset: 0x2CBE7, size: 0x8, addend: 0x0, symName: __ZNSt3__129_AllocatorDestroyRangeReverseINS_9allocatorINS_12basic_stringIcNS_11char_traitsIcEENS1_IcEEEEEENS_16reverse_iteratorIPS6_EEEC2B8ne180100ERS7_RSA_SD_, symObjAddr: 0x75D8, symBinAddr: 0x10000AADC, symSize: 0x38 }
  - { offset: 0x2CC3E, size: 0x8, addend: 0x0, symName: __ZNSt3__19allocatorINS_12basic_stringIcNS_11char_traitsIcEENS0_IcEEEEE9constructB8ne180100IS5_JS5_EEEvPT_DpOT0_, symObjAddr: 0x7610, symBinAddr: 0x10000AB14, symSize: 0x30 }
  - { offset: 0x2CC94, size: 0x8, addend: 0x0, symName: __ZNSt3__112basic_stringIcNS_11char_traitsIcEENS_9allocatorIcEEEC1B8ne180100EOS5_, symObjAddr: 0x7640, symBinAddr: 0x10000AB44, symSize: 0x34 }
  - { offset: 0x2CCCD, size: 0x8, addend: 0x0, symName: __ZNSt3__112basic_stringIcNS_11char_traitsIcEENS_9allocatorIcEEEC2B8ne180100EOS5_, symObjAddr: 0x7674, symBinAddr: 0x10000AB78, symSize: 0xB8 }
  - { offset: 0x2CD38, size: 0x8, addend: 0x0, symName: __ZZNSt3__112basic_stringIcNS_11char_traitsIcEENS_9allocatorIcEEEC1B8ne180100EOS5_ENKUlRS5_E_clES7_, symObjAddr: 0x772C, symBinAddr: 0x10000AC30, symSize: 0x40 }
  - { offset: 0x2CD71, size: 0x8, addend: 0x0, symName: __ZNKSt3__112basic_stringIcNS_11char_traitsIcEENS_9allocatorIcEEE17__annotate_deleteB8ne180100Ev, symObjAddr: 0x776C, symBinAddr: 0x10000AC70, symSize: 0x10 }
  - { offset: 0x2CD9D, size: 0x8, addend: 0x0, symName: __ZNSt3__119__to_address_helperINS_16reverse_iteratorIPNS_12basic_stringIcNS_11char_traitsIcEENS_9allocatorIcEEEEEEvE6__callB8ne180100ERKS9_, symObjAddr: 0x777C, symBinAddr: 0x10000AC80, symSize: 0x38 }
  - { offset: 0x2CDC0, size: 0x8, addend: 0x0, symName: __ZNKSt3__116reverse_iteratorIPNS_12basic_stringIcNS_11char_traitsIcEENS_9allocatorIcEEEEEptB8ne180100Ev, symObjAddr: 0x77B4, symBinAddr: 0x10000ACB8, symSize: 0x24 }
  - { offset: 0x2CDE6, size: 0x8, addend: 0x0, symName: __ZNSt3__128__exception_guard_exceptionsINS_29_AllocatorDestroyRangeReverseINS_9allocatorINS_12basic_stringIcNS_11char_traitsIcEENS2_IcEEEEEENS_16reverse_iteratorIPS7_EEEEED2B8ne180100Ev, symObjAddr: 0x77D8, symBinAddr: 0x10000ACDC, symSize: 0x50 }
  - { offset: 0x2CE10, size: 0x8, addend: 0x0, symName: __ZNKSt3__129_AllocatorDestroyRangeReverseINS_9allocatorINS_12basic_stringIcNS_11char_traitsIcEENS1_IcEEEEEENS_16reverse_iteratorIPS6_EEEclB8ne180100Ev, symObjAddr: 0x7828, symBinAddr: 0x10000AD2C, symSize: 0xB4 }
  - { offset: 0x2CE37, size: 0x8, addend: 0x0, symName: __ZNSt3__116reverse_iteratorINS0_IPNS_12basic_stringIcNS_11char_traitsIcEENS_9allocatorIcEEEEEEEC1B8ne180100ES8_, symObjAddr: 0x794C, symBinAddr: 0x10000AE50, symSize: 0x3C }
  - { offset: 0x2CE6F, size: 0x8, addend: 0x0, symName: __ZNSt3__116reverse_iteratorINS0_IPNS_12basic_stringIcNS_11char_traitsIcEENS_9allocatorIcEEEEEEEppB8ne180100Ev, symObjAddr: 0x7A0C, symBinAddr: 0x10000AF10, symSize: 0x30 }
  - { offset: 0x2CE95, size: 0x8, addend: 0x0, symName: __ZNKSt3__116reverse_iteratorINS0_IPNS_12basic_stringIcNS_11char_traitsIcEENS_9allocatorIcEEEEEEE4baseB8ne180100Ev, symObjAddr: 0x7A3C, symBinAddr: 0x10000AF40, symSize: 0x24 }
  - { offset: 0x2CEC1, size: 0x8, addend: 0x0, symName: __ZNSt3__119__to_address_helperINS_16reverse_iteratorINS1_IPNS_12basic_stringIcNS_11char_traitsIcEENS_9allocatorIcEEEEEEEEvE6__callB8ne180100ERKSA_, symObjAddr: 0x7A60, symBinAddr: 0x10000AF64, symSize: 0x38 }
  - { offset: 0x2CEE4, size: 0x8, addend: 0x0, symName: __ZNKSt3__116reverse_iteratorINS0_IPNS_12basic_stringIcNS_11char_traitsIcEENS_9allocatorIcEEEEEEEptB8ne180100Ev, symObjAddr: 0x7A98, symBinAddr: 0x10000AF9C, symSize: 0x24 }
  - { offset: 0x2CF0A, size: 0x8, addend: 0x0, symName: __ZNKSt3__116reverse_iteratorINS0_IPNS_12basic_stringIcNS_11char_traitsIcEENS_9allocatorIcEEEEEEEdeB8ne180100Ev, symObjAddr: 0x7ABC, symBinAddr: 0x10000AFC0, symSize: 0x34 }
  - { offset: 0x2CF3E, size: 0x8, addend: 0x0, symName: __ZNSt3__116reverse_iteratorIPNS_12basic_stringIcNS_11char_traitsIcEENS_9allocatorIcEEEEEmmB8ne180100Ev, symObjAddr: 0x7AF0, symBinAddr: 0x10000AFF4, symSize: 0x20 }
  - { offset: 0x2CF64, size: 0x8, addend: 0x0, symName: __ZNSt3__116reverse_iteratorINS0_IPNS_12basic_stringIcNS_11char_traitsIcEENS_9allocatorIcEEEEEEEC2B8ne180100ES8_, symObjAddr: 0x7B10, symBinAddr: 0x10000B014, symSize: 0x2C }
  - { offset: 0x2CF9C, size: 0x8, addend: 0x0, symName: __ZNSt3__116reverse_iteratorIPNS_12basic_stringIcNS_11char_traitsIcEENS_9allocatorIcEEEEEC2B8ne180100ES7_, symObjAddr: 0x7B3C, symBinAddr: 0x10000B040, symSize: 0x28 }
  - { offset: 0x2CFD4, size: 0x8, addend: 0x0, symName: __ZNSt3__114__split_bufferINS_12basic_stringIcNS_11char_traitsIcEENS_9allocatorIcEEEERNS4_IS6_EEED2Ev, symObjAddr: 0x7B64, symBinAddr: 0x10000B068, symSize: 0x8C }
  - { offset: 0x2D000, size: 0x8, addend: 0x0, symName: __ZNSt3__114__split_bufferINS_12basic_stringIcNS_11char_traitsIcEENS_9allocatorIcEEEERNS4_IS6_EEE5clearB8ne180100Ev, symObjAddr: 0x7BF0, symBinAddr: 0x10000B0F4, symSize: 0x28 }
  - { offset: 0x2D026, size: 0x8, addend: 0x0, symName: __ZNKSt3__114__split_bufferINS_12basic_stringIcNS_11char_traitsIcEENS_9allocatorIcEEEERNS4_IS6_EEE8capacityB8ne180100Ev, symObjAddr: 0x7C18, symBinAddr: 0x10000B11C, symSize: 0x40 }
  - { offset: 0x2D04C, size: 0x8, addend: 0x0, symName: __ZNSt3__114__split_bufferINS_12basic_stringIcNS_11char_traitsIcEENS_9allocatorIcEEEERNS4_IS6_EEE17__destruct_at_endB8ne180100EPS6_, symObjAddr: 0x7C58, symBinAddr: 0x10000B15C, symSize: 0x2C }
  - { offset: 0x2D080, size: 0x8, addend: 0x0, symName: __ZNSt3__114__split_bufferINS_12basic_stringIcNS_11char_traitsIcEENS_9allocatorIcEEEERNS4_IS6_EEE17__destruct_at_endB8ne180100EPS6_NS_17integral_constantIbLb0EEE, symObjAddr: 0x7C84, symBinAddr: 0x10000B188, symSize: 0x80 }
  - { offset: 0x2D0C0, size: 0x8, addend: 0x0, symName: __ZNKSt3__114__split_bufferINS_12basic_stringIcNS_11char_traitsIcEENS_9allocatorIcEEEERNS4_IS6_EEE9__end_capB8ne180100Ev, symObjAddr: 0x7D04, symBinAddr: 0x10000B208, symSize: 0x28 }
  - { offset: 0x2D0E6, size: 0x8, addend: 0x0, symName: __ZNKSt3__117__compressed_pairIPNS_12basic_stringIcNS_11char_traitsIcEENS_9allocatorIcEEEERNS4_IS6_EEE5firstB8ne180100Ev, symObjAddr: 0x7D2C, symBinAddr: 0x10000B230, symSize: 0x24 }
  - { offset: 0x2D151, size: 0x8, addend: 0x0, symName: __ZNSt3__15stackINS_10shared_ptrI6LayoutEENS_5dequeIS3_NS_9allocatorIS3_EEEEEC1B8ne180100Ev, symObjAddr: 0x7D50, symBinAddr: 0x10000B254, symSize: 0x2C }
  - { offset: 0x2D17B, size: 0x8, addend: 0x0, symName: __ZNSt3__15stackINS_10shared_ptrI6LayoutEENS_5dequeIS3_NS_9allocatorIS3_EEEEE4pushB8ne180100ERKS3_, symObjAddr: 0x7D7C, symBinAddr: 0x10000B280, symSize: 0x2C }
  - { offset: 0x2D1AF, size: 0x8, addend: 0x0, symName: __ZNSt3__16vectorINS_12basic_stringIcNS_11char_traitsIcEENS_9allocatorIcEEEENS4_IS6_EEEixB8ne180100Em, symObjAddr: 0x7E54, symBinAddr: 0x10000B358, symSize: 0x2C }
  - { offset: 0x2D1E6, size: 0x8, addend: 0x0, symName: __ZNSt3__15stackINS_10shared_ptrI6LayoutEENS_5dequeIS3_NS_9allocatorIS3_EEEEE3topB8ne180100Ev, symObjAddr: 0x7E80, symBinAddr: 0x10000B384, symSize: 0x24 }
  - { offset: 0x2D20C, size: 0x8, addend: 0x0, symName: __ZNSt3__16vectorINS_10shared_ptrI7ElementEENS_9allocatorIS3_EEE9push_backB8ne180100EOS3_, symObjAddr: 0x7EA4, symBinAddr: 0x10000B3A8, symSize: 0x90 }
  - { offset: 0x2D252, size: 0x8, addend: 0x0, symName: __ZN14ElementFactory13createElementE11ElementType5Tvec2IiES2_5Tvec3IiE, symObjAddr: 0x7F34, symBinAddr: 0x10000B438, symSize: 0xF8 }
  - { offset: 0x2D2A2, size: 0x8, addend: 0x0, symName: __ZN6Layout15pointTranslatorE5Tvec2IiE, symObjAddr: 0x802C, symBinAddr: 0x10000B530, symSize: 0x7C }
  - { offset: 0x2D2D7, size: 0x8, addend: 0x0, symName: __ZN5Tvec2IiEC1ERKS0_, symObjAddr: 0x80A8, symBinAddr: 0x10000B5AC, symSize: 0x58 }
  - { offset: 0x2D30F, size: 0x8, addend: 0x0, symName: __ZN5Tvec3IiEC1ERKS0_, symObjAddr: 0x8100, symBinAddr: 0x10000B604, symSize: 0x6C }
  - { offset: 0x2D347, size: 0x8, addend: 0x0, symName: __ZN14ElementFactory13createElementE11ElementType5Tvec2IiE5Tvec3IiE, symObjAddr: 0x816C, symBinAddr: 0x10000B670, symSize: 0x64 }
  - { offset: 0x2D388, size: 0x8, addend: 0x0, symName: __ZN5Tvec2IfEC1Eff, symObjAddr: 0x81D0, symBinAddr: 0x10000B6D4, symSize: 0x4C }
  - { offset: 0x2D3CE, size: 0x8, addend: 0x0, symName: __ZN5Tvec2IfEC1ERKS0_, symObjAddr: 0x821C, symBinAddr: 0x10000B720, symSize: 0x58 }
  - { offset: 0x2D406, size: 0x8, addend: 0x0, symName: __ZN6LayoutC1E5Tvec2IfES1_iibNSt3__112basic_stringIcNS2_11char_traitsIcEENS2_9allocatorIcEEEE, symObjAddr: 0x8274, symBinAddr: 0x10000B778, symSize: 0x68 }
  - { offset: 0x2D487, size: 0x8, addend: 0x0, symName: __ZNSt3__16vectorINS_10shared_ptrI6LayoutEENS_9allocatorIS3_EEE9push_backB8ne180100ERKS3_, symObjAddr: 0x831C, symBinAddr: 0x10000B820, symSize: 0x90 }
  - { offset: 0x2D4CD, size: 0x8, addend: 0x0, symName: __ZNKSt3__15stackINS_10shared_ptrI6LayoutEENS_5dequeIS3_NS_9allocatorIS3_EEEEE5emptyB8ne180100Ev, symObjAddr: 0x83AC, symBinAddr: 0x10000B8B0, symSize: 0x28 }
  - { offset: 0x2D4F3, size: 0x8, addend: 0x0, symName: __ZNSt3__15stackINS_10shared_ptrI6LayoutEENS_5dequeIS3_NS_9allocatorIS3_EEEEE3popB8ne180100Ev, symObjAddr: 0x83D4, symBinAddr: 0x10000B8D8, symSize: 0x24 }
  - { offset: 0x2D519, size: 0x8, addend: 0x0, symName: __ZNSt3__15stackINS_10shared_ptrI6LayoutEENS_5dequeIS3_NS_9allocatorIS3_EEEEED1Ev, symObjAddr: 0x83F8, symBinAddr: 0x10000B8FC, symSize: 0x2C }
  - { offset: 0x2D545, size: 0x8, addend: 0x0, symName: __ZNSt3__15stackINS_10shared_ptrI6LayoutEENS_5dequeIS3_NS_9allocatorIS3_EEEEEC2B8ne180100Ev, symObjAddr: 0x8424, symBinAddr: 0x10000B928, symSize: 0x2C }
  - { offset: 0x2D56F, size: 0x8, addend: 0x0, symName: __ZNSt3__15dequeINS_10shared_ptrI6LayoutEENS_9allocatorIS3_EEEC1B8ne180100Ev, symObjAddr: 0x8450, symBinAddr: 0x10000B954, symSize: 0x2C }
  - { offset: 0x2D599, size: 0x8, addend: 0x0, symName: __ZNSt3__15dequeINS_10shared_ptrI6LayoutEENS_9allocatorIS3_EEEC2B8ne180100Ev, symObjAddr: 0x847C, symBinAddr: 0x10000B980, symSize: 0x5C }
  - { offset: 0x2D5C3, size: 0x8, addend: 0x0, symName: __ZNSt3__114__split_bufferIPNS_10shared_ptrI6LayoutEENS_9allocatorIS4_EEEC1B8ne180100Ev, symObjAddr: 0x84D8, symBinAddr: 0x10000B9DC, symSize: 0x2C }
  - { offset: 0x2D5F3, size: 0x8, addend: 0x0, symName: __ZNSt3__117__compressed_pairImNS_9allocatorINS_10shared_ptrI6LayoutEEEEEC1B8ne180100IiNS_18__default_init_tagEEEOT_OT0_, symObjAddr: 0x8504, symBinAddr: 0x10000BA08, symSize: 0x3C }
  - { offset: 0x2D64B, size: 0x8, addend: 0x0, symName: __ZNKSt3__15dequeINS_10shared_ptrI6LayoutEENS_9allocatorIS3_EEE14__annotate_newB8ne180100Em, symObjAddr: 0x8540, symBinAddr: 0x10000BA44, symSize: 0x14 }
  - { offset: 0x2D680, size: 0x8, addend: 0x0, symName: __ZNSt3__114__split_bufferIPNS_10shared_ptrI6LayoutEENS_9allocatorIS4_EEEC2B8ne180100Ev, symObjAddr: 0x8554, symBinAddr: 0x10000BA58, symSize: 0x50 }
  - { offset: 0x2D6AA, size: 0x8, addend: 0x0, symName: __ZNSt3__117__compressed_pairIPPNS_10shared_ptrI6LayoutEENS_9allocatorIS4_EEEC1B8ne180100IDnNS_18__default_init_tagEEEOT_OT0_, symObjAddr: 0x85A4, symBinAddr: 0x10000BAA8, symSize: 0x3C }
  - { offset: 0x2D702, size: 0x8, addend: 0x0, symName: __ZNSt3__117__compressed_pairIPPNS_10shared_ptrI6LayoutEENS_9allocatorIS4_EEEC2B8ne180100IDnNS_18__default_init_tagEEEOT_OT0_, symObjAddr: 0x85E0, symBinAddr: 0x10000BAE4, symSize: 0x40 }
  - { offset: 0x2D75A, size: 0x8, addend: 0x0, symName: __ZNSt3__122__compressed_pair_elemIPPNS_10shared_ptrI6LayoutEELi0ELb0EEC2B8ne180100IDnvEEOT_, symObjAddr: 0x8620, symBinAddr: 0x10000BB24, symSize: 0x1C }
  - { offset: 0x2D79C, size: 0x8, addend: 0x0, symName: __ZNSt3__122__compressed_pair_elemINS_9allocatorIPNS_10shared_ptrI6LayoutEEEELi1ELb1EEC2B8ne180100ENS_18__default_init_tagE, symObjAddr: 0x863C, symBinAddr: 0x10000BB40, symSize: 0x2C }
  - { offset: 0x2D7D0, size: 0x8, addend: 0x0, symName: __ZNSt3__19allocatorIPNS_10shared_ptrI6LayoutEEEC2B8ne180100Ev, symObjAddr: 0x8668, symBinAddr: 0x10000BB6C, symSize: 0x2C }
  - { offset: 0x2D7FA, size: 0x8, addend: 0x0, symName: __ZNSt3__116__non_trivial_ifILb1ENS_9allocatorIPNS_10shared_ptrI6LayoutEEEEEC2B8ne180100Ev, symObjAddr: 0x8694, symBinAddr: 0x10000BB98, symSize: 0x14 }
  - { offset: 0x2D824, size: 0x8, addend: 0x0, symName: __ZNSt3__117__compressed_pairImNS_9allocatorINS_10shared_ptrI6LayoutEEEEEC2B8ne180100IiNS_18__default_init_tagEEEOT_OT0_, symObjAddr: 0x86A8, symBinAddr: 0x10000BBAC, symSize: 0x40 }
  - { offset: 0x2D87C, size: 0x8, addend: 0x0, symName: __ZNSt3__122__compressed_pair_elemImLi0ELb0EEC2B8ne180100IivEEOT_, symObjAddr: 0x86E8, symBinAddr: 0x10000BBEC, symSize: 0x24 }
  - { offset: 0x2D8BE, size: 0x8, addend: 0x0, symName: __ZNSt3__15dequeINS_10shared_ptrI6LayoutEENS_9allocatorIS3_EEE9push_backERKS3_, symObjAddr: 0x870C, symBinAddr: 0x10000BC10, symSize: 0xAC }
  - { offset: 0x2D904, size: 0x8, addend: 0x0, symName: __ZNSt3__15dequeINS_10shared_ptrI6LayoutEENS_9allocatorIS3_EEE7__allocB8ne180100Ev, symObjAddr: 0x87B8, symBinAddr: 0x10000BCBC, symSize: 0x28 }
  - { offset: 0x2D92A, size: 0x8, addend: 0x0, symName: __ZNKSt3__15dequeINS_10shared_ptrI6LayoutEENS_9allocatorIS3_EEE12__back_spareB8ne180100Ev, symObjAddr: 0x87E0, symBinAddr: 0x10000BCE4, symSize: 0x54 }
  - { offset: 0x2D950, size: 0x8, addend: 0x0, symName: __ZNSt3__15dequeINS_10shared_ptrI6LayoutEENS_9allocatorIS3_EEE19__add_back_capacityEv, symObjAddr: 0x8834, symBinAddr: 0x10000BD38, symSize: 0x34C }
  - { offset: 0x2DA05, size: 0x8, addend: 0x0, symName: __ZNKSt3__15dequeINS_10shared_ptrI6LayoutEENS_9allocatorIS3_EEE24__annotate_increase_backB8ne180100Em, symObjAddr: 0x8B80, symBinAddr: 0x10000C084, symSize: 0x14 }
  - { offset: 0x2DA3A, size: 0x8, addend: 0x0, symName: __ZNSt3__116allocator_traitsINS_9allocatorINS_10shared_ptrI6LayoutEEEEE9constructB8ne180100IS4_JRKS4_EvEEvRS5_PT_DpOT0_, symObjAddr: 0x8B94, symBinAddr: 0x10000C098, symSize: 0x34 }
  - { offset: 0x2DA91, size: 0x8, addend: 0x0, symName: __ZNSt3__15dequeINS_10shared_ptrI6LayoutEENS_9allocatorIS3_EEE3endB8ne180100Ev, symObjAddr: 0x8BC8, symBinAddr: 0x10000C0CC, symSize: 0xCC }
  - { offset: 0x2DAD5, size: 0x8, addend: 0x0, symName: __ZNKSt3__116__deque_iteratorINS_10shared_ptrI6LayoutEEPS3_RS3_PS4_lLl256EEdeB8ne180100Ev, symObjAddr: 0x8C94, symBinAddr: 0x10000C198, symSize: 0x18 }
  - { offset: 0x2DAFB, size: 0x8, addend: 0x0, symName: __ZNSt3__15dequeINS_10shared_ptrI6LayoutEENS_9allocatorIS3_EEE6__sizeB8ne180100Ev, symObjAddr: 0x8CAC, symBinAddr: 0x10000C1B0, symSize: 0x28 }
  - { offset: 0x2DB21, size: 0x8, addend: 0x0, symName: __ZNSt3__117__compressed_pairImNS_9allocatorINS_10shared_ptrI6LayoutEEEEE6secondB8ne180100Ev, symObjAddr: 0x8CD4, symBinAddr: 0x10000C1D8, symSize: 0x24 }
  - { offset: 0x2DB47, size: 0x8, addend: 0x0, symName: __ZNKSt3__15dequeINS_10shared_ptrI6LayoutEENS_9allocatorIS3_EEE10__capacityB8ne180100Ev, symObjAddr: 0x8CF8, symBinAddr: 0x10000C1FC, symSize: 0x60 }
  - { offset: 0x2DB6D, size: 0x8, addend: 0x0, symName: __ZNKSt3__15dequeINS_10shared_ptrI6LayoutEENS_9allocatorIS3_EEE4sizeB8ne180100Ev, symObjAddr: 0x8D58, symBinAddr: 0x10000C25C, symSize: 0x28 }
  - { offset: 0x2DB93, size: 0x8, addend: 0x0, symName: __ZNKSt3__114__split_bufferIPNS_10shared_ptrI6LayoutEENS_9allocatorIS4_EEE4sizeB8ne180100Ev, symObjAddr: 0x8D80, symBinAddr: 0x10000C284, symSize: 0x28 }
  - { offset: 0x2DBB9, size: 0x8, addend: 0x0, symName: __ZNKSt3__15dequeINS_10shared_ptrI6LayoutEENS_9allocatorIS3_EEE6__sizeB8ne180100Ev, symObjAddr: 0x8DA8, symBinAddr: 0x10000C2AC, symSize: 0x28 }
  - { offset: 0x2DBDF, size: 0x8, addend: 0x0, symName: __ZNKSt3__117__compressed_pairImNS_9allocatorINS_10shared_ptrI6LayoutEEEEE5firstB8ne180100Ev, symObjAddr: 0x8DD0, symBinAddr: 0x10000C2D4, symSize: 0x24 }
  - { offset: 0x2DC05, size: 0x8, addend: 0x0, symName: __ZNKSt3__122__compressed_pair_elemImLi0ELb0EE5__getB8ne180100Ev, symObjAddr: 0x8DF4, symBinAddr: 0x10000C2F8, symSize: 0x14 }
  - { offset: 0x2DC2B, size: 0x8, addend: 0x0, symName: __ZNKSt3__15dequeINS_10shared_ptrI6LayoutEENS_9allocatorIS3_EEE13__front_spareB8ne180100Ev, symObjAddr: 0x8E08, symBinAddr: 0x10000C30C, symSize: 0x18 }
  - { offset: 0x2DC51, size: 0x8, addend: 0x0, symName: __ZNSt3__114__split_bufferIPNS_10shared_ptrI6LayoutEENS_9allocatorIS4_EEE5frontB8ne180100Ev, symObjAddr: 0x8E20, symBinAddr: 0x10000C324, symSize: 0x18 }
  - { offset: 0x2DC77, size: 0x8, addend: 0x0, symName: __ZNSt3__114__split_bufferIPNS_10shared_ptrI6LayoutEENS_9allocatorIS4_EEE9pop_frontB8ne180100Ev, symObjAddr: 0x8E38, symBinAddr: 0x10000C33C, symSize: 0x2C }
  - { offset: 0x2DC9D, size: 0x8, addend: 0x0, symName: __ZNSt3__114__split_bufferIPNS_10shared_ptrI6LayoutEENS_9allocatorIS4_EEE9push_backB8ne180100ERKS4_, symObjAddr: 0x8E64, symBinAddr: 0x10000C368, symSize: 0x260 }
  - { offset: 0x2DD15, size: 0x8, addend: 0x0, symName: __ZNKSt3__114__split_bufferIPNS_10shared_ptrI6LayoutEENS_9allocatorIS4_EEE8capacityB8ne180100Ev, symObjAddr: 0x90C4, symBinAddr: 0x10000C5C8, symSize: 0x40 }
  - { offset: 0x2DD3B, size: 0x8, addend: 0x0, symName: __ZNKSt3__114__split_bufferIPNS_10shared_ptrI6LayoutEENS_9allocatorIS4_EEE12__back_spareB8ne180100Ev, symObjAddr: 0x9104, symBinAddr: 0x10000C608, symSize: 0x40 }
  - { offset: 0x2DD61, size: 0x8, addend: 0x0, symName: __ZNSt3__114__split_bufferIPNS_10shared_ptrI6LayoutEENS_9allocatorIS4_EEE9push_backEOS4_, symObjAddr: 0x9144, symBinAddr: 0x10000C648, symSize: 0x260 }
  - { offset: 0x2DDD9, size: 0x8, addend: 0x0, symName: __ZNSt3__116allocator_traitsINS_9allocatorINS_10shared_ptrI6LayoutEEEEE8allocateB8ne180100ERS5_m, symObjAddr: 0x93A4, symBinAddr: 0x10000C8A8, symSize: 0x2C }
  - { offset: 0x2DE0C, size: 0x8, addend: 0x0, symName: __ZNSt3__114__split_bufferIPNS_10shared_ptrI6LayoutEENS_9allocatorIS4_EEE10push_frontEOS4_, symObjAddr: 0x93D0, symBinAddr: 0x10000C8D4, symSize: 0x25C }
  - { offset: 0x2DE84, size: 0x8, addend: 0x0, symName: __ZNKSt3__15dequeINS_10shared_ptrI6LayoutEENS_9allocatorIS3_EEE22__annotate_whole_blockB8ne180100EmNS6_22__asan_annotation_typeE, symObjAddr: 0x962C, symBinAddr: 0x10000CB30, symSize: 0x18 }
  - { offset: 0x2DEC8, size: 0x8, addend: 0x0, symName: __ZNSt3__114__split_bufferIPNS_10shared_ptrI6LayoutEENS_9allocatorIS4_EEE7__allocB8ne180100Ev, symObjAddr: 0x9644, symBinAddr: 0x10000CB48, symSize: 0x28 }
  - { offset: 0x2DEEE, size: 0x8, addend: 0x0, symName: __ZNSt3__114__split_bufferIPNS_10shared_ptrI6LayoutEERNS_9allocatorIS4_EEEC1EmmS7_, symObjAddr: 0x966C, symBinAddr: 0x10000CB70, symSize: 0x44 }
  - { offset: 0x2DF4A, size: 0x8, addend: 0x0, symName: __ZNSt3__122__allocator_destructorINS_9allocatorINS_10shared_ptrI6LayoutEEEEEC1B8ne180100ERS5_m, symObjAddr: 0x96B0, symBinAddr: 0x10000CBB4, symSize: 0x3C }
  - { offset: 0x2E009, size: 0x8, addend: 0x0, symName: __ZNSt3__110unique_ptrIPNS_10shared_ptrI6LayoutEENS_22__allocator_destructorINS_9allocatorIS3_EEEEEC1B8ne180100ILb1EvEES4_NS_16__dependent_typeINS_27__unique_ptr_deleter_sfinaeIS8_EEXT_EE20__good_rval_ref_typeE, symObjAddr: 0x96EC, symBinAddr: 0x10000CBF0, symSize: 0x3C }
  - { offset: 0x2E05A, size: 0x8, addend: 0x0, symName: __ZNSt3__114__split_bufferIPNS_10shared_ptrI6LayoutEERNS_9allocatorIS4_EEE9push_backEOS4_, symObjAddr: 0x9728, symBinAddr: 0x10000CC2C, symSize: 0x260 }
  - { offset: 0x2E0D2, size: 0x8, addend: 0x0, symName: __ZNKSt3__110unique_ptrIPNS_10shared_ptrI6LayoutEENS_22__allocator_destructorINS_9allocatorIS3_EEEEE3getB8ne180100Ev, symObjAddr: 0x9988, symBinAddr: 0x10000CE8C, symSize: 0x28 }
  - { offset: 0x2E0F8, size: 0x8, addend: 0x0, symName: __ZNSt3__110unique_ptrIPNS_10shared_ptrI6LayoutEENS_22__allocator_destructorINS_9allocatorIS3_EEEEE7releaseB8ne180100Ev, symObjAddr: 0x99B0, symBinAddr: 0x10000CEB4, symSize: 0x44 }
  - { offset: 0x2E12D, size: 0x8, addend: 0x0, symName: __ZNSt3__114__split_bufferIPNS_10shared_ptrI6LayoutEENS_9allocatorIS4_EEE3endB8ne180100Ev, symObjAddr: 0x99F4, symBinAddr: 0x10000CEF8, symSize: 0x18 }
  - { offset: 0x2E153, size: 0x8, addend: 0x0, symName: __ZNSt3__114__split_bufferIPNS_10shared_ptrI6LayoutEENS_9allocatorIS4_EEE5beginB8ne180100Ev, symObjAddr: 0x9A0C, symBinAddr: 0x10000CF10, symSize: 0x18 }
  - { offset: 0x2E179, size: 0x8, addend: 0x0, symName: __ZNSt3__114__split_bufferIPNS_10shared_ptrI6LayoutEERNS_9allocatorIS4_EEE10push_frontERKS4_, symObjAddr: 0x9A24, symBinAddr: 0x10000CF28, symSize: 0x25C }
  - { offset: 0x2E1F1, size: 0x8, addend: 0x0, symName: __ZNSt3__114__split_bufferIPNS_10shared_ptrI6LayoutEENS_9allocatorIS4_EEE9__end_capB8ne180100Ev, symObjAddr: 0x9CBC, symBinAddr: 0x10000D1C0, symSize: 0x28 }
  - { offset: 0x2E217, size: 0x8, addend: 0x0, symName: __ZNSt3__114__split_bufferIPNS_10shared_ptrI6LayoutEERNS_9allocatorIS4_EEE9__end_capB8ne180100Ev, symObjAddr: 0x9CE4, symBinAddr: 0x10000D1E8, symSize: 0x28 }
  - { offset: 0x2E23D, size: 0x8, addend: 0x0, symName: __ZNSt3__110unique_ptrIPNS_10shared_ptrI6LayoutEENS_22__allocator_destructorINS_9allocatorIS3_EEEEED1B8ne180100Ev, symObjAddr: 0x9D0C, symBinAddr: 0x10000D210, symSize: 0x2C }
  - { offset: 0x2E267, size: 0x8, addend: 0x0, symName: __ZNSt3__114__split_bufferIPNS_10shared_ptrI6LayoutEERNS_9allocatorIS4_EEED1Ev, symObjAddr: 0x9D38, symBinAddr: 0x10000D23C, symSize: 0x2C }
  - { offset: 0x2E293, size: 0x8, addend: 0x0, symName: __ZNSt3__114__split_bufferIPNS_10shared_ptrI6LayoutEENS_9allocatorIS4_EEE19__destruct_at_beginB8ne180100EPS4_, symObjAddr: 0x9D64, symBinAddr: 0x10000D268, symSize: 0x2C }
  - { offset: 0x2E2C7, size: 0x8, addend: 0x0, symName: __ZNSt3__114__split_bufferIPNS_10shared_ptrI6LayoutEENS_9allocatorIS4_EEE19__destruct_at_beginEPS4_NS_17integral_constantIbLb1EEE, symObjAddr: 0x9D90, symBinAddr: 0x10000D294, symSize: 0x20 }
  - { offset: 0x2E307, size: 0x8, addend: 0x0, symName: __ZNSt3__114__split_bufferIPNS_10shared_ptrI6LayoutEERNS_9allocatorIS4_EEE18__construct_at_endINS_13move_iteratorIPS4_EELi0EEEvT_SD_, symObjAddr: 0x9DF0, symBinAddr: 0x10000D2F4, symSize: 0x60 }
  - { offset: 0x2E35A, size: 0x8, addend: 0x0, symName: __ZNSt3__113move_iteratorIPPNS_10shared_ptrI6LayoutEEEC1B8ne180100ES5_, symObjAddr: 0x9E50, symBinAddr: 0x10000D354, symSize: 0x34 }
  - { offset: 0x2E392, size: 0x8, addend: 0x0, symName: __ZNSt3__116allocator_traitsINS_9allocatorIPNS_10shared_ptrI6LayoutEEEEE9constructB8ne180100IS5_JRKS5_EvEEvRS6_PT_DpOT0_, symObjAddr: 0x9E84, symBinAddr: 0x10000D388, symSize: 0x34 }
  - { offset: 0x2E411, size: 0x8, addend: 0x0, symName: __ZNKSt3__114__move_trivialclB8ne180100IPNS_10shared_ptrI6LayoutEES5_Li0EEENS_4pairIPT_PT0_EES8_S8_SA_, symObjAddr: 0xA068, symBinAddr: 0x10000D56C, symSize: 0x48 }
  - { offset: 0x2E47F, size: 0x8, addend: 0x0, symName: __ZNSt3__14pairIPPNS_10shared_ptrI6LayoutEES5_EC1B8ne180100IRS5_S5_Li0EEEOT_OT0_, symObjAddr: 0xA290, symBinAddr: 0x10000D794, symSize: 0x3C }
  - { offset: 0x2E4DD, size: 0x8, addend: 0x0, symName: __ZNSt3__14pairIPPNS_10shared_ptrI6LayoutEES5_EC2B8ne180100IRS5_S5_Li0EEEOT_OT0_, symObjAddr: 0xA2CC, symBinAddr: 0x10000D7D0, symSize: 0x34 }
  - { offset: 0x2E53B, size: 0x8, addend: 0x0, symName: __ZNSt3__118__unwrap_iter_implIPPNS_10shared_ptrI6LayoutEELb1EE8__unwrapB8ne180100ES5_, symObjAddr: 0xA300, symBinAddr: 0x10000D804, symSize: 0x24 }
  - { offset: 0x2E55E, size: 0x8, addend: 0x0, symName: __ZNSt3__14pairIPPNS_10shared_ptrI6LayoutEES5_EC1B8ne180100IS5_S5_Li0EEEOT_OT0_, symObjAddr: 0xA324, symBinAddr: 0x10000D828, symSize: 0x3C }
  - { offset: 0x2E5BC, size: 0x8, addend: 0x0, symName: __ZNSt3__14pairIPPNS_10shared_ptrI6LayoutEES5_EC2B8ne180100IS5_S5_Li0EEEOT_OT0_, symObjAddr: 0xA360, symBinAddr: 0x10000D864, symSize: 0x34 }
  - { offset: 0x2E61A, size: 0x8, addend: 0x0, symName: __ZNSt3__118__unwrap_iter_implIPPNS_10shared_ptrI6LayoutEELb1EE8__rewrapB8ne180100ES5_S5_, symObjAddr: 0xA394, symBinAddr: 0x10000D898, symSize: 0x50 }
  - { offset: 0x2E64B, size: 0x8, addend: 0x0, symName: __ZNSt3__114__split_bufferIPNS_10shared_ptrI6LayoutEERNS_9allocatorIS4_EEE28__construct_at_end_with_sizeINS_13move_iteratorIPS4_EEEEvT_m, symObjAddr: 0xA3E4, symBinAddr: 0x10000D8E8, symSize: 0xDC }
  - { offset: 0x2E6B3, size: 0x8, addend: 0x0, symName: __ZNSt3__114__split_bufferIPNS_10shared_ptrI6LayoutEERNS_9allocatorIS4_EEE21_ConstructTransactionC1B8ne180100EPPS4_m, symObjAddr: 0xA4FC, symBinAddr: 0x10000DA00, symSize: 0x3C }
  - { offset: 0x2E6F9, size: 0x8, addend: 0x0, symName: __ZNSt3__116allocator_traitsINS_9allocatorIPNS_10shared_ptrI6LayoutEEEEE9constructB8ne180100IS5_JS5_EvEEvRS6_PT_DpOT0_, symObjAddr: 0xA538, symBinAddr: 0x10000DA3C, symSize: 0x34 }
  - { offset: 0x2E750, size: 0x8, addend: 0x0, symName: __ZNSt3__114__split_bufferIPNS_10shared_ptrI6LayoutEERNS_9allocatorIS4_EEE7__allocB8ne180100Ev, symObjAddr: 0xA56C, symBinAddr: 0x10000DA70, symSize: 0x28 }
  - { offset: 0x2E776, size: 0x8, addend: 0x0, symName: __ZNKSt3__113move_iteratorIPPNS_10shared_ptrI6LayoutEEEdeB8ne180100Ev, symObjAddr: 0xA594, symBinAddr: 0x10000DA98, symSize: 0x18 }
  - { offset: 0x2E79C, size: 0x8, addend: 0x0, symName: __ZNSt3__113move_iteratorIPPNS_10shared_ptrI6LayoutEEEppB8ne180100Ev, symObjAddr: 0xA5AC, symBinAddr: 0x10000DAB0, symSize: 0x20 }
  - { offset: 0x2E7C2, size: 0x8, addend: 0x0, symName: __ZNSt3__114__split_bufferIPNS_10shared_ptrI6LayoutEERNS_9allocatorIS4_EEE21_ConstructTransactionD1B8ne180100Ev, symObjAddr: 0xA5CC, symBinAddr: 0x10000DAD0, symSize: 0x2C }
  - { offset: 0x2E7EC, size: 0x8, addend: 0x0, symName: __ZNSt3__114__split_bufferIPNS_10shared_ptrI6LayoutEERNS_9allocatorIS4_EEE21_ConstructTransactionC2B8ne180100EPPS4_m, symObjAddr: 0xA5F8, symBinAddr: 0x10000DAFC, symSize: 0x44 }
  - { offset: 0x2E832, size: 0x8, addend: 0x0, symName: __ZNSt3__19allocatorIPNS_10shared_ptrI6LayoutEEE9constructB8ne180100IS4_JS4_EEEvPT_DpOT0_, symObjAddr: 0xA63C, symBinAddr: 0x10000DB40, symSize: 0x28 }
  - { offset: 0x2E888, size: 0x8, addend: 0x0, symName: __ZNSt3__117__compressed_pairIPPNS_10shared_ptrI6LayoutEERNS_9allocatorIS4_EEE6secondB8ne180100Ev, symObjAddr: 0xA664, symBinAddr: 0x10000DB68, symSize: 0x28 }
  - { offset: 0x2E8AE, size: 0x8, addend: 0x0, symName: __ZNSt3__122__compressed_pair_elemIRNS_9allocatorIPNS_10shared_ptrI6LayoutEEEELi1ELb0EE5__getB8ne180100Ev, symObjAddr: 0xA68C, symBinAddr: 0x10000DB90, symSize: 0x18 }
  - { offset: 0x2E8D4, size: 0x8, addend: 0x0, symName: __ZNSt3__114__split_bufferIPNS_10shared_ptrI6LayoutEERNS_9allocatorIS4_EEE21_ConstructTransactionD2B8ne180100Ev, symObjAddr: 0xA6A4, symBinAddr: 0x10000DBA8, symSize: 0x20 }
  - { offset: 0x2E8FE, size: 0x8, addend: 0x0, symName: __ZNKSt3__113move_iteratorIPPNS_10shared_ptrI6LayoutEEE4baseB8ne180100Ev, symObjAddr: 0xA73C, symBinAddr: 0x10000DC40, symSize: 0x18 }
  - { offset: 0x2E924, size: 0x8, addend: 0x0, symName: __ZNSt3__113move_iteratorIPPNS_10shared_ptrI6LayoutEEEC2B8ne180100ES5_, symObjAddr: 0xA754, symBinAddr: 0x10000DC58, symSize: 0x20 }
  - { offset: 0x2E95C, size: 0x8, addend: 0x0, symName: __ZNSt3__19allocatorIPNS_10shared_ptrI6LayoutEEE9constructB8ne180100IS4_JRKS4_EEEvPT_DpOT0_, symObjAddr: 0xA774, symBinAddr: 0x10000DC78, symSize: 0x28 }
  - { offset: 0x2E9B2, size: 0x8, addend: 0x0, symName: __ZNKSt3__114__split_bufferIPNS_10shared_ptrI6LayoutEENS_9allocatorIS4_EEE9__end_capB8ne180100Ev, symObjAddr: 0xA79C, symBinAddr: 0x10000DCA0, symSize: 0x28 }
  - { offset: 0x2E9D8, size: 0x8, addend: 0x0, symName: __ZNKSt3__117__compressed_pairIPPNS_10shared_ptrI6LayoutEENS_9allocatorIS4_EEE5firstB8ne180100Ev, symObjAddr: 0xA7C4, symBinAddr: 0x10000DCC8, symSize: 0x24 }
  - { offset: 0x2E9FE, size: 0x8, addend: 0x0, symName: __ZNKSt3__122__compressed_pair_elemIPPNS_10shared_ptrI6LayoutEELi0ELb0EE5__getB8ne180100Ev, symObjAddr: 0xA7E8, symBinAddr: 0x10000DCEC, symSize: 0x14 }
  - { offset: 0x2EA24, size: 0x8, addend: 0x0, symName: __ZNSt3__19allocatorINS_10shared_ptrI6LayoutEEE8allocateB8ne180100Em, symObjAddr: 0xA7FC, symBinAddr: 0x10000DD00, symSize: 0x58 }
  - { offset: 0x2EA63, size: 0x8, addend: 0x0, symName: __ZNSt3__116allocator_traitsINS_9allocatorINS_10shared_ptrI6LayoutEEEEE8max_sizeB8ne180100IS5_vEEmRKS5_, symObjAddr: 0xA854, symBinAddr: 0x10000DD58, symSize: 0x24 }
  - { offset: 0x2EA91, size: 0x8, addend: 0x0, symName: __ZNKSt3__19allocatorINS_10shared_ptrI6LayoutEEE8max_sizeB8ne180100Ev, symObjAddr: 0xA878, symBinAddr: 0x10000DD7C, symSize: 0x14 }
  - { offset: 0x2EAC2, size: 0x8, addend: 0x0, symName: __ZNKSt3__123__move_backward_trivialclB8ne180100IPNS_10shared_ptrI6LayoutEES5_Li0EEENS_4pairIPT_PT0_EES8_S8_SA_, symObjAddr: 0xAA08, symBinAddr: 0x10000DF0C, symSize: 0x48 }
  - { offset: 0x2EB2A, size: 0x8, addend: 0x0, symName: __ZNSt3__14pairIPPNS_10shared_ptrI6LayoutEES5_EC1B8ne180100IRS5_S8_Li0EEEOT_OT0_, symObjAddr: 0xAB18, symBinAddr: 0x10000E01C, symSize: 0x3C }
  - { offset: 0x2EB88, size: 0x8, addend: 0x0, symName: __ZNSt3__14pairIPPNS_10shared_ptrI6LayoutEES5_EC2B8ne180100IRS5_S8_Li0EEEOT_OT0_, symObjAddr: 0xAB54, symBinAddr: 0x10000E058, symSize: 0x34 }
  - { offset: 0x2EBE6, size: 0x8, addend: 0x0, symName: __ZNSt3__117__compressed_pairIPPNS_10shared_ptrI6LayoutEENS_9allocatorIS4_EEE6secondB8ne180100Ev, symObjAddr: 0xAB88, symBinAddr: 0x10000E08C, symSize: 0x24 }
  - { offset: 0x2EC0C, size: 0x8, addend: 0x0, symName: __ZNSt3__122__compressed_pair_elemINS_9allocatorIPNS_10shared_ptrI6LayoutEEEELi1ELb1EE5__getB8ne180100Ev, symObjAddr: 0xABAC, symBinAddr: 0x10000E0B0, symSize: 0x14 }
  - { offset: 0x2EC32, size: 0x8, addend: 0x0, symName: __ZNSt3__114__split_bufferIPNS_10shared_ptrI6LayoutEERNS_9allocatorIS4_EEEC2EmmS7_, symObjAddr: 0xABC0, symBinAddr: 0x10000E0C4, symSize: 0xD4 }
  - { offset: 0x2ECA5, size: 0x8, addend: 0x0, symName: __ZNSt3__117__compressed_pairIPPNS_10shared_ptrI6LayoutEERNS_9allocatorIS4_EEEC1B8ne180100IDnS8_EEOT_OT0_, symObjAddr: 0xAC94, symBinAddr: 0x10000E198, symSize: 0x3C }
  - { offset: 0x2ECFD, size: 0x8, addend: 0x0, symName: __ZNSt3__117__compressed_pairIPPNS_10shared_ptrI6LayoutEERNS_9allocatorIS4_EEEC2B8ne180100IDnS8_EEOT_OT0_, symObjAddr: 0xAD10, symBinAddr: 0x10000E214, symSize: 0x48 }
  - { offset: 0x2ED55, size: 0x8, addend: 0x0, symName: __ZNSt3__122__compressed_pair_elemIRNS_9allocatorIPNS_10shared_ptrI6LayoutEEEELi1ELb0EEC2B8ne180100IS7_vEEOT_, symObjAddr: 0xAD58, symBinAddr: 0x10000E25C, symSize: 0x20 }
  - { offset: 0x2ED97, size: 0x8, addend: 0x0, symName: __ZNSt3__19allocatorIPNS_10shared_ptrI6LayoutEEE8allocateB8ne180100Em, symObjAddr: 0xAD78, symBinAddr: 0x10000E27C, symSize: 0x58 }
  - { offset: 0x2EDD6, size: 0x8, addend: 0x0, symName: __ZNSt3__116allocator_traitsINS_9allocatorIPNS_10shared_ptrI6LayoutEEEEE8max_sizeB8ne180100IS6_vEEmRKS6_, symObjAddr: 0xADD0, symBinAddr: 0x10000E2D4, symSize: 0x24 }
  - { offset: 0x2EE04, size: 0x8, addend: 0x0, symName: __ZNKSt3__19allocatorIPNS_10shared_ptrI6LayoutEEE8max_sizeB8ne180100Ev, symObjAddr: 0xADF4, symBinAddr: 0x10000E2F8, symSize: 0x14 }
  - { offset: 0x2EE2A, size: 0x8, addend: 0x0, symName: __ZNSt3__122__allocator_destructorINS_9allocatorINS_10shared_ptrI6LayoutEEEEEC2B8ne180100ERS5_m, symObjAddr: 0xAE08, symBinAddr: 0x10000E30C, symSize: 0x2C }
  - { offset: 0x2EE70, size: 0x8, addend: 0x0, symName: __ZNSt3__110unique_ptrIPNS_10shared_ptrI6LayoutEENS_22__allocator_destructorINS_9allocatorIS3_EEEEEC2B8ne180100ILb1EvEES4_NS_16__dependent_typeINS_27__unique_ptr_deleter_sfinaeIS8_EEXT_EE20__good_rval_ref_typeE, symObjAddr: 0xAE34, symBinAddr: 0x10000E338, symSize: 0x48 }
  - { offset: 0x2EEC1, size: 0x8, addend: 0x0, symName: __ZNSt3__117__compressed_pairIPNS_10shared_ptrI6LayoutEENS_22__allocator_destructorINS_9allocatorIS3_EEEEEC1B8ne180100IRS4_S8_EEOT_OT0_, symObjAddr: 0xAE7C, symBinAddr: 0x10000E380, symSize: 0x3C }
  - { offset: 0x2EF19, size: 0x8, addend: 0x0, symName: __ZNSt3__117__compressed_pairIPNS_10shared_ptrI6LayoutEENS_22__allocator_destructorINS_9allocatorIS3_EEEEEC2B8ne180100IRS4_S8_EEOT_OT0_, symObjAddr: 0xAEB8, symBinAddr: 0x10000E3BC, symSize: 0x48 }
  - { offset: 0x2EF71, size: 0x8, addend: 0x0, symName: __ZNSt3__122__compressed_pair_elemIPNS_10shared_ptrI6LayoutEELi0ELb0EEC2B8ne180100IRS4_vEEOT_, symObjAddr: 0xAF00, symBinAddr: 0x10000E404, symSize: 0x24 }
  - { offset: 0x2EFB3, size: 0x8, addend: 0x0, symName: __ZNSt3__122__compressed_pair_elemINS_22__allocator_destructorINS_9allocatorINS_10shared_ptrI6LayoutEEEEEELi1ELb0EEC2B8ne180100IS7_vEEOT_, symObjAddr: 0xAF24, symBinAddr: 0x10000E428, symSize: 0x24 }
  - { offset: 0x2EFF5, size: 0x8, addend: 0x0, symName: __ZNKSt3__117__compressed_pairIPNS_10shared_ptrI6LayoutEENS_22__allocator_destructorINS_9allocatorIS3_EEEEE5firstB8ne180100Ev, symObjAddr: 0xAF48, symBinAddr: 0x10000E44C, symSize: 0x24 }
  - { offset: 0x2F01B, size: 0x8, addend: 0x0, symName: __ZNSt3__117__compressed_pairIPNS_10shared_ptrI6LayoutEENS_22__allocator_destructorINS_9allocatorIS3_EEEEE5firstB8ne180100Ev, symObjAddr: 0xAF6C, symBinAddr: 0x10000E470, symSize: 0x24 }
  - { offset: 0x2F041, size: 0x8, addend: 0x0, symName: __ZNSt3__122__compressed_pair_elemIPNS_10shared_ptrI6LayoutEELi0ELb0EE5__getB8ne180100Ev, symObjAddr: 0xAF90, symBinAddr: 0x10000E494, symSize: 0x14 }
  - { offset: 0x2F067, size: 0x8, addend: 0x0, symName: __ZNSt3__117__compressed_pairIPPNS_10shared_ptrI6LayoutEENS_9allocatorIS4_EEE5firstB8ne180100Ev, symObjAddr: 0xAFA4, symBinAddr: 0x10000E4A8, symSize: 0x24 }
  - { offset: 0x2F08D, size: 0x8, addend: 0x0, symName: __ZNSt3__122__compressed_pair_elemIPPNS_10shared_ptrI6LayoutEELi0ELb0EE5__getB8ne180100Ev, symObjAddr: 0xAFC8, symBinAddr: 0x10000E4CC, symSize: 0x14 }
  - { offset: 0x2F0B3, size: 0x8, addend: 0x0, symName: __ZNSt3__117__compressed_pairIPPNS_10shared_ptrI6LayoutEERNS_9allocatorIS4_EEE5firstB8ne180100Ev, symObjAddr: 0xAFDC, symBinAddr: 0x10000E4E0, symSize: 0x24 }
  - { offset: 0x2F0D9, size: 0x8, addend: 0x0, symName: __ZNSt3__110unique_ptrIPNS_10shared_ptrI6LayoutEENS_22__allocator_destructorINS_9allocatorIS3_EEEEED2B8ne180100Ev, symObjAddr: 0xB000, symBinAddr: 0x10000E504, symSize: 0x30 }
  - { offset: 0x2F103, size: 0x8, addend: 0x0, symName: __ZNSt3__110unique_ptrIPNS_10shared_ptrI6LayoutEENS_22__allocator_destructorINS_9allocatorIS3_EEEEE5resetB8ne180100ES4_, symObjAddr: 0xB030, symBinAddr: 0x10000E534, symSize: 0x78 }
  - { offset: 0x2F147, size: 0x8, addend: 0x0, symName: __ZNSt3__117__compressed_pairIPNS_10shared_ptrI6LayoutEENS_22__allocator_destructorINS_9allocatorIS3_EEEEE6secondB8ne180100Ev, symObjAddr: 0xB0A8, symBinAddr: 0x10000E5AC, symSize: 0x28 }
  - { offset: 0x2F16D, size: 0x8, addend: 0x0, symName: __ZNSt3__122__allocator_destructorINS_9allocatorINS_10shared_ptrI6LayoutEEEEEclB8ne180100EPS4_, symObjAddr: 0xB0D0, symBinAddr: 0x10000E5D4, symSize: 0x34 }
  - { offset: 0x2F1A1, size: 0x8, addend: 0x0, symName: __ZNSt3__122__compressed_pair_elemINS_22__allocator_destructorINS_9allocatorINS_10shared_ptrI6LayoutEEEEEELi1ELb0EE5__getB8ne180100Ev, symObjAddr: 0xB104, symBinAddr: 0x10000E608, symSize: 0x14 }
  - { offset: 0x2F1C7, size: 0x8, addend: 0x0, symName: __ZNSt3__114__split_bufferIPNS_10shared_ptrI6LayoutEERNS_9allocatorIS4_EEED2Ev, symObjAddr: 0xB118, symBinAddr: 0x10000E61C, symSize: 0x8C }
  - { offset: 0x2F1F3, size: 0x8, addend: 0x0, symName: __ZNSt3__114__split_bufferIPNS_10shared_ptrI6LayoutEERNS_9allocatorIS4_EEE5clearB8ne180100Ev, symObjAddr: 0xB1A4, symBinAddr: 0x10000E6A8, symSize: 0x28 }
  - { offset: 0x2F219, size: 0x8, addend: 0x0, symName: __ZNSt3__116allocator_traitsINS_9allocatorIPNS_10shared_ptrI6LayoutEEEEE10deallocateB8ne180100ERS6_PS5_m, symObjAddr: 0xB1CC, symBinAddr: 0x10000E6D0, symSize: 0x34 }
  - { offset: 0x2F25B, size: 0x8, addend: 0x0, symName: __ZNKSt3__114__split_bufferIPNS_10shared_ptrI6LayoutEERNS_9allocatorIS4_EEE8capacityB8ne180100Ev, symObjAddr: 0xB200, symBinAddr: 0x10000E704, symSize: 0x40 }
  - { offset: 0x2F281, size: 0x8, addend: 0x0, symName: __ZNSt3__114__split_bufferIPNS_10shared_ptrI6LayoutEERNS_9allocatorIS4_EEE17__destruct_at_endB8ne180100EPS4_, symObjAddr: 0xB240, symBinAddr: 0x10000E744, symSize: 0x2C }
  - { offset: 0x2F2B5, size: 0x8, addend: 0x0, symName: __ZNSt3__114__split_bufferIPNS_10shared_ptrI6LayoutEERNS_9allocatorIS4_EEE17__destruct_at_endB8ne180100EPS4_NS_17integral_constantIbLb0EEE, symObjAddr: 0xB26C, symBinAddr: 0x10000E770, symSize: 0x80 }
  - { offset: 0x2F2F5, size: 0x8, addend: 0x0, symName: __ZNSt3__116allocator_traitsINS_9allocatorIPNS_10shared_ptrI6LayoutEEEEE7destroyB8ne180100IS5_vEEvRS6_PT_, symObjAddr: 0xB2EC, symBinAddr: 0x10000E7F0, symSize: 0x2C }
  - { offset: 0x2F332, size: 0x8, addend: 0x0, symName: __ZNSt3__19allocatorIPNS_10shared_ptrI6LayoutEEE7destroyB8ne180100EPS4_, symObjAddr: 0xB318, symBinAddr: 0x10000E81C, symSize: 0x14 }
  - { offset: 0x2F366, size: 0x8, addend: 0x0, symName: __ZNSt3__19allocatorIPNS_10shared_ptrI6LayoutEEE10deallocateB8ne180100EPS4_m, symObjAddr: 0xB32C, symBinAddr: 0x10000E830, symSize: 0x40 }
  - { offset: 0x2F3A8, size: 0x8, addend: 0x0, symName: __ZNKSt3__114__split_bufferIPNS_10shared_ptrI6LayoutEERNS_9allocatorIS4_EEE9__end_capB8ne180100Ev, symObjAddr: 0xB36C, symBinAddr: 0x10000E870, symSize: 0x28 }
  - { offset: 0x2F3CE, size: 0x8, addend: 0x0, symName: __ZNKSt3__117__compressed_pairIPPNS_10shared_ptrI6LayoutEERNS_9allocatorIS4_EEE5firstB8ne180100Ev, symObjAddr: 0xB394, symBinAddr: 0x10000E898, symSize: 0x24 }
  - { offset: 0x2F3F4, size: 0x8, addend: 0x0, symName: __ZNSt3__19allocatorINS_10shared_ptrI6LayoutEEE9constructB8ne180100IS3_JRKS3_EEEvPT_DpOT0_, symObjAddr: 0xB3B8, symBinAddr: 0x10000E8BC, symSize: 0x30 }
  - { offset: 0x2F44A, size: 0x8, addend: 0x0, symName: __ZNKSt3__114__split_bufferIPNS_10shared_ptrI6LayoutEENS_9allocatorIS4_EEE5emptyB8ne180100Ev, symObjAddr: 0xB3E8, symBinAddr: 0x10000E8EC, symSize: 0x28 }
  - { offset: 0x2F470, size: 0x8, addend: 0x0, symName: __ZNSt3__116__deque_iteratorINS_10shared_ptrI6LayoutEEPS3_RS3_PS4_lLl256EEC1B8ne180100ES6_S4_, symObjAddr: 0xB410, symBinAddr: 0x10000E914, symSize: 0x3C }
  - { offset: 0x2F4B8, size: 0x8, addend: 0x0, symName: __ZNSt3__116__deque_iteratorINS_10shared_ptrI6LayoutEEPS3_RS3_PS4_lLl256EEC2B8ne180100ES6_S4_, symObjAddr: 0xB44C, symBinAddr: 0x10000E950, symSize: 0x2C }
  - { offset: 0x2F500, size: 0x8, addend: 0x0, symName: __ZNSt3__117__compressed_pairImNS_9allocatorINS_10shared_ptrI6LayoutEEEEE5firstB8ne180100Ev, symObjAddr: 0xB478, symBinAddr: 0x10000E97C, symSize: 0x24 }
  - { offset: 0x2F526, size: 0x8, addend: 0x0, symName: __ZNSt3__122__compressed_pair_elemImLi0ELb0EE5__getB8ne180100Ev, symObjAddr: 0xB49C, symBinAddr: 0x10000E9A0, symSize: 0x14 }
  - { offset: 0x2F54C, size: 0x8, addend: 0x0, symName: __ZNSt3__111char_traitsIcE6lengthB8ne180100EPKc, symObjAddr: 0xB4B0, symBinAddr: 0x10000E9B4, symSize: 0x34 }
  - { offset: 0x2F56F, size: 0x8, addend: 0x0, symName: __ZNSt3__15dequeINS_10shared_ptrI6LayoutEENS_9allocatorIS3_EEE4backEv, symObjAddr: 0xB508, symBinAddr: 0x10000EA0C, symSize: 0x68 }
  - { offset: 0x2F5A6, size: 0x8, addend: 0x0, symName: __ZNSt3__16vectorINS_10shared_ptrI7ElementEENS_9allocatorIS3_EEE9__end_capB8ne180100Ev, symObjAddr: 0xB570, symBinAddr: 0x10000EA74, symSize: 0x28 }
  - { offset: 0x2F5CC, size: 0x8, addend: 0x0, symName: __ZNSt3__16vectorINS_10shared_ptrI7ElementEENS_9allocatorIS3_EEE22__construct_one_at_endB8ne180100IJS3_EEEvDpOT_, symObjAddr: 0xB598, symBinAddr: 0x10000EA9C, symSize: 0x90 }
  - { offset: 0x2F61B, size: 0x8, addend: 0x0, symName: __ZNSt3__16vectorINS_10shared_ptrI7ElementEENS_9allocatorIS3_EEE21__push_back_slow_pathIS3_EEPS3_OT_, symObjAddr: 0xB628, symBinAddr: 0x10000EB2C, symSize: 0xE8 }
  - { offset: 0x2F679, size: 0x8, addend: 0x0, symName: __ZNSt3__117__compressed_pairIPNS_10shared_ptrI7ElementEENS_9allocatorIS3_EEE5firstB8ne180100Ev, symObjAddr: 0xB710, symBinAddr: 0x10000EC14, symSize: 0x24 }
  - { offset: 0x2F69F, size: 0x8, addend: 0x0, symName: __ZNSt3__122__compressed_pair_elemIPNS_10shared_ptrI7ElementEELi0ELb0EE5__getB8ne180100Ev, symObjAddr: 0xB734, symBinAddr: 0x10000EC38, symSize: 0x14 }
  - { offset: 0x2F6E1, size: 0x8, addend: 0x0, symName: __ZNSt3__16vectorINS_10shared_ptrI7ElementEENS_9allocatorIS3_EEE21_ConstructTransactionC1B8ne180100ERS6_m, symObjAddr: 0xB748, symBinAddr: 0x10000EC4C, symSize: 0x3C }
  - { offset: 0x2F729, size: 0x8, addend: 0x0, symName: __ZNSt3__116allocator_traitsINS_9allocatorINS_10shared_ptrI7ElementEEEEE9constructB8ne180100IS4_JS4_EvEEvRS5_PT_DpOT0_, symObjAddr: 0xB784, symBinAddr: 0x10000EC88, symSize: 0x34 }
  - { offset: 0x2F780, size: 0x8, addend: 0x0, symName: __ZNSt3__16vectorINS_10shared_ptrI7ElementEENS_9allocatorIS3_EEE21_ConstructTransactionD1B8ne180100Ev, symObjAddr: 0xB7B8, symBinAddr: 0x10000ECBC, symSize: 0x2C }
  - { offset: 0x2F7AA, size: 0x8, addend: 0x0, symName: __ZNSt3__16vectorINS_10shared_ptrI7ElementEENS_9allocatorIS3_EEE21_ConstructTransactionC2B8ne180100ERS6_m, symObjAddr: 0xB7E4, symBinAddr: 0x10000ECE8, symSize: 0x44 }
  - { offset: 0x2F7F2, size: 0x8, addend: 0x0, symName: __ZNSt3__19allocatorINS_10shared_ptrI7ElementEEE9constructB8ne180100IS3_JS3_EEEvPT_DpOT0_, symObjAddr: 0xB828, symBinAddr: 0x10000ED2C, symSize: 0x30 }
  - { offset: 0x2F848, size: 0x8, addend: 0x0, symName: __ZNSt3__110shared_ptrI7ElementEC1B8ne180100EOS2_, symObjAddr: 0xB858, symBinAddr: 0x10000ED5C, symSize: 0x34 }
  - { offset: 0x2F881, size: 0x8, addend: 0x0, symName: __ZNSt3__110shared_ptrI7ElementEC2B8ne180100EOS2_, symObjAddr: 0xB88C, symBinAddr: 0x10000ED90, symSize: 0x40 }
  - { offset: 0x2F8BA, size: 0x8, addend: 0x0, symName: __ZNSt3__16vectorINS_10shared_ptrI7ElementEENS_9allocatorIS3_EEE21_ConstructTransactionD2B8ne180100Ev, symObjAddr: 0xB8CC, symBinAddr: 0x10000EDD0, symSize: 0x20 }
  - { offset: 0x2F8E4, size: 0x8, addend: 0x0, symName: __ZNKSt3__16vectorINS_10shared_ptrI7ElementEENS_9allocatorIS3_EEE11__recommendB8ne180100Em, symObjAddr: 0xB8EC, symBinAddr: 0x10000EDF0, symSize: 0xB4 }
  - { offset: 0x2F939, size: 0x8, addend: 0x0, symName: __ZNKSt3__16vectorINS_10shared_ptrI7ElementEENS_9allocatorIS3_EEE4sizeB8ne180100Ev, symObjAddr: 0xB9A0, symBinAddr: 0x10000EEA4, symSize: 0x28 }
  - { offset: 0x2F95F, size: 0x8, addend: 0x0, symName: __ZNSt3__114__split_bufferINS_10shared_ptrI7ElementEERNS_9allocatorIS3_EEEC1EmmS6_, symObjAddr: 0xB9C8, symBinAddr: 0x10000EECC, symSize: 0x44 }
  - { offset: 0x2F9B5, size: 0x8, addend: 0x0, symName: __ZNSt3__114__split_bufferINS_10shared_ptrI7ElementEERNS_9allocatorIS3_EEED1Ev, symObjAddr: 0xBB1C, symBinAddr: 0x10000F020, symSize: 0x2C }
  - { offset: 0x2F9E1, size: 0x8, addend: 0x0, symName: __ZNKSt3__16vectorINS_10shared_ptrI7ElementEENS_9allocatorIS3_EEE8max_sizeEv, symObjAddr: 0xBB48, symBinAddr: 0x10000F04C, symSize: 0x60 }
  - { offset: 0x2FA09, size: 0x8, addend: 0x0, symName: __ZNKSt3__16vectorINS_10shared_ptrI7ElementEENS_9allocatorIS3_EEE20__throw_length_errorB8ne180100Ev, symObjAddr: 0xBBA8, symBinAddr: 0x10000F0AC, symSize: 0x1C }
  - { offset: 0x2FA3A, size: 0x8, addend: 0x0, symName: __ZNSt3__116allocator_traitsINS_9allocatorINS_10shared_ptrI7ElementEEEEE8max_sizeB8ne180100IS5_vEEmRKS5_, symObjAddr: 0xBBC4, symBinAddr: 0x10000F0C8, symSize: 0x24 }
  - { offset: 0x2FA68, size: 0x8, addend: 0x0, symName: __ZNKSt3__16vectorINS_10shared_ptrI7ElementEENS_9allocatorIS3_EEE7__allocB8ne180100Ev, symObjAddr: 0xBBE8, symBinAddr: 0x10000F0EC, symSize: 0x28 }
  - { offset: 0x2FA8E, size: 0x8, addend: 0x0, symName: __ZNKSt3__19allocatorINS_10shared_ptrI7ElementEEE8max_sizeB8ne180100Ev, symObjAddr: 0xBC10, symBinAddr: 0x10000F114, symSize: 0x14 }
  - { offset: 0x2FAB4, size: 0x8, addend: 0x0, symName: __ZNKSt3__117__compressed_pairIPNS_10shared_ptrI7ElementEENS_9allocatorIS3_EEE6secondB8ne180100Ev, symObjAddr: 0xBC24, symBinAddr: 0x10000F128, symSize: 0x24 }
  - { offset: 0x2FADA, size: 0x8, addend: 0x0, symName: __ZNKSt3__122__compressed_pair_elemINS_9allocatorINS_10shared_ptrI7ElementEEEELi1ELb1EE5__getB8ne180100Ev, symObjAddr: 0xBC48, symBinAddr: 0x10000F14C, symSize: 0x14 }
  - { offset: 0x2FB00, size: 0x8, addend: 0x0, symName: __ZNSt3__114__split_bufferINS_10shared_ptrI7ElementEERNS_9allocatorIS3_EEEC2EmmS6_, symObjAddr: 0xBC5C, symBinAddr: 0x10000F160, symSize: 0xD4 }
  - { offset: 0x2FB73, size: 0x8, addend: 0x0, symName: __ZNSt3__117__compressed_pairIPNS_10shared_ptrI7ElementEERNS_9allocatorIS3_EEEC1B8ne180100IDnS7_EEOT_OT0_, symObjAddr: 0xBD30, symBinAddr: 0x10000F234, symSize: 0x3C }
  - { offset: 0x2FBCB, size: 0x8, addend: 0x0, symName: __ZNSt3__114__split_bufferINS_10shared_ptrI7ElementEERNS_9allocatorIS3_EEE7__allocB8ne180100Ev, symObjAddr: 0xBDAC, symBinAddr: 0x10000F2B0, symSize: 0x28 }
  - { offset: 0x2FBF1, size: 0x8, addend: 0x0, symName: __ZNSt3__114__split_bufferINS_10shared_ptrI7ElementEERNS_9allocatorIS3_EEE9__end_capB8ne180100Ev, symObjAddr: 0xBDD4, symBinAddr: 0x10000F2D8, symSize: 0x28 }
  - { offset: 0x2FC17, size: 0x8, addend: 0x0, symName: __ZNSt3__117__compressed_pairIPNS_10shared_ptrI7ElementEERNS_9allocatorIS3_EEEC2B8ne180100IDnS7_EEOT_OT0_, symObjAddr: 0xBDFC, symBinAddr: 0x10000F300, symSize: 0x48 }
  - { offset: 0x2FC6F, size: 0x8, addend: 0x0, symName: __ZNSt3__122__compressed_pair_elemIRNS_9allocatorINS_10shared_ptrI7ElementEEEELi1ELb0EEC2B8ne180100IS6_vEEOT_, symObjAddr: 0xBE44, symBinAddr: 0x10000F348, symSize: 0x20 }
  - { offset: 0x2FCB1, size: 0x8, addend: 0x0, symName: __ZNSt3__19allocatorINS_10shared_ptrI7ElementEEE8allocateB8ne180100Em, symObjAddr: 0xBE64, symBinAddr: 0x10000F368, symSize: 0x58 }
  - { offset: 0x2FCE5, size: 0x8, addend: 0x0, symName: __ZNSt3__117__compressed_pairIPNS_10shared_ptrI7ElementEERNS_9allocatorIS3_EEE6secondB8ne180100Ev, symObjAddr: 0xBEBC, symBinAddr: 0x10000F3C0, symSize: 0x28 }
  - { offset: 0x2FD0B, size: 0x8, addend: 0x0, symName: __ZNSt3__122__compressed_pair_elemIRNS_9allocatorINS_10shared_ptrI7ElementEEEELi1ELb0EE5__getB8ne180100Ev, symObjAddr: 0xBEE4, symBinAddr: 0x10000F3E8, symSize: 0x18 }
  - { offset: 0x2FD31, size: 0x8, addend: 0x0, symName: __ZNSt3__117__compressed_pairIPNS_10shared_ptrI7ElementEERNS_9allocatorIS3_EEE5firstB8ne180100Ev, symObjAddr: 0xBEFC, symBinAddr: 0x10000F400, symSize: 0x24 }
  - { offset: 0x2FD57, size: 0x8, addend: 0x0, symName: __ZNSt3__116reverse_iteratorIPNS_10shared_ptrI7ElementEEEC1B8ne180100ES4_, symObjAddr: 0xC04C, symBinAddr: 0x10000F550, symSize: 0x34 }
  - { offset: 0x2FD8F, size: 0x8, addend: 0x0, symName: __ZNKSt3__116reverse_iteratorIPNS_10shared_ptrI7ElementEEE4baseB8ne180100Ev, symObjAddr: 0xC080, symBinAddr: 0x10000F584, symSize: 0x18 }
  - { offset: 0x2FDB5, size: 0x8, addend: 0x0, symName: __ZNKSt3__16vectorINS_10shared_ptrI7ElementEENS_9allocatorIS3_EEE14__annotate_newB8ne180100Em, symObjAddr: 0xC0D4, symBinAddr: 0x10000F5D8, symSize: 0x14 }
  - { offset: 0x2FDEA, size: 0x8, addend: 0x0, symName: __ZNSt3__129_AllocatorDestroyRangeReverseINS_9allocatorINS_10shared_ptrI7ElementEEEENS_16reverse_iteratorIPS4_EEEC1B8ne180100ERS5_RS8_SB_, symObjAddr: 0xC134, symBinAddr: 0x10000F638, symSize: 0x44 }
  - { offset: 0x2FE41, size: 0x8, addend: 0x0, symName: __ZNKSt3__116reverse_iteratorIPNS_10shared_ptrI7ElementEEEdeB8ne180100Ev, symObjAddr: 0xC1E4, symBinAddr: 0x10000F6E8, symSize: 0x28 }
  - { offset: 0x2FE75, size: 0x8, addend: 0x0, symName: __ZNSt3__116reverse_iteratorIPNS_10shared_ptrI7ElementEEEppB8ne180100Ev, symObjAddr: 0xC20C, symBinAddr: 0x10000F710, symSize: 0x20 }
  - { offset: 0x2FE9B, size: 0x8, addend: 0x0, symName: __ZNSt3__128__exception_guard_exceptionsINS_29_AllocatorDestroyRangeReverseINS_9allocatorINS_10shared_ptrI7ElementEEEENS_16reverse_iteratorIPS5_EEEEE10__completeB8ne180100Ev, symObjAddr: 0xC22C, symBinAddr: 0x10000F730, symSize: 0x1C }
  - { offset: 0x2FEC1, size: 0x8, addend: 0x0, symName: __ZNSt3__128__exception_guard_exceptionsINS_29_AllocatorDestroyRangeReverseINS_9allocatorINS_10shared_ptrI7ElementEEEENS_16reverse_iteratorIPS5_EEEEED1B8ne180100Ev, symObjAddr: 0xC248, symBinAddr: 0x10000F74C, symSize: 0x2C }
  - { offset: 0x2FEEB, size: 0x8, addend: 0x0, symName: __ZNSt3__128__exception_guard_exceptionsINS_29_AllocatorDestroyRangeReverseINS_9allocatorINS_10shared_ptrI7ElementEEEENS_16reverse_iteratorIPS5_EEEEEC1B8ne180100ESA_, symObjAddr: 0xC274, symBinAddr: 0x10000F778, symSize: 0x34 }
  - { offset: 0x2FF24, size: 0x8, addend: 0x0, symName: __ZNSt3__128__exception_guard_exceptionsINS_29_AllocatorDestroyRangeReverseINS_9allocatorINS_10shared_ptrI7ElementEEEENS_16reverse_iteratorIPS5_EEEEEC2B8ne180100ESA_, symObjAddr: 0xC2A8, symBinAddr: 0x10000F7AC, symSize: 0x30 }
  - { offset: 0x2FF5D, size: 0x8, addend: 0x0, symName: __ZNSt3__129_AllocatorDestroyRangeReverseINS_9allocatorINS_10shared_ptrI7ElementEEEENS_16reverse_iteratorIPS4_EEEC2B8ne180100ERS5_RS8_SB_, symObjAddr: 0xC2D8, symBinAddr: 0x10000F7DC, symSize: 0x38 }
  - { offset: 0x2FFBA, size: 0x8, addend: 0x0, symName: __ZNSt3__119__to_address_helperINS_16reverse_iteratorIPNS_10shared_ptrI7ElementEEEEvE6__callB8ne180100ERKS6_, symObjAddr: 0xC310, symBinAddr: 0x10000F814, symSize: 0x38 }
  - { offset: 0x2FFDD, size: 0x8, addend: 0x0, symName: __ZNKSt3__116reverse_iteratorIPNS_10shared_ptrI7ElementEEEptB8ne180100Ev, symObjAddr: 0xC348, symBinAddr: 0x10000F84C, symSize: 0x24 }
  - { offset: 0x30003, size: 0x8, addend: 0x0, symName: __ZNSt3__128__exception_guard_exceptionsINS_29_AllocatorDestroyRangeReverseINS_9allocatorINS_10shared_ptrI7ElementEEEENS_16reverse_iteratorIPS5_EEEEED2B8ne180100Ev, symObjAddr: 0xC36C, symBinAddr: 0x10000F870, symSize: 0x50 }
  - { offset: 0x3002D, size: 0x8, addend: 0x0, symName: __ZNKSt3__129_AllocatorDestroyRangeReverseINS_9allocatorINS_10shared_ptrI7ElementEEEENS_16reverse_iteratorIPS4_EEEclB8ne180100Ev, symObjAddr: 0xC3BC, symBinAddr: 0x10000F8C0, symSize: 0xB4 }
  - { offset: 0x30054, size: 0x8, addend: 0x0, symName: __ZNSt3__116reverse_iteratorINS0_IPNS_10shared_ptrI7ElementEEEEEC1B8ne180100ES5_, symObjAddr: 0xC4E0, symBinAddr: 0x10000F9E4, symSize: 0x3C }
  - { offset: 0x3008C, size: 0x8, addend: 0x0, symName: __ZNSt3__116reverse_iteratorINS0_IPNS_10shared_ptrI7ElementEEEEEppB8ne180100Ev, symObjAddr: 0xC5A0, symBinAddr: 0x10000FAA4, symSize: 0x30 }
  - { offset: 0x300B2, size: 0x8, addend: 0x0, symName: __ZNKSt3__116reverse_iteratorINS0_IPNS_10shared_ptrI7ElementEEEEE4baseB8ne180100Ev, symObjAddr: 0xC5D0, symBinAddr: 0x10000FAD4, symSize: 0x24 }
  - { offset: 0x300DE, size: 0x8, addend: 0x0, symName: __ZNSt3__119__to_address_helperINS_16reverse_iteratorINS1_IPNS_10shared_ptrI7ElementEEEEEEvE6__callB8ne180100ERKS7_, symObjAddr: 0xC5F4, symBinAddr: 0x10000FAF8, symSize: 0x38 }
  - { offset: 0x30101, size: 0x8, addend: 0x0, symName: __ZNKSt3__116reverse_iteratorINS0_IPNS_10shared_ptrI7ElementEEEEEptB8ne180100Ev, symObjAddr: 0xC62C, symBinAddr: 0x10000FB30, symSize: 0x24 }
  - { offset: 0x30127, size: 0x8, addend: 0x0, symName: __ZNKSt3__116reverse_iteratorINS0_IPNS_10shared_ptrI7ElementEEEEEdeB8ne180100Ev, symObjAddr: 0xC650, symBinAddr: 0x10000FB54, symSize: 0x34 }
  - { offset: 0x3015B, size: 0x8, addend: 0x0, symName: __ZNSt3__116reverse_iteratorIPNS_10shared_ptrI7ElementEEEmmB8ne180100Ev, symObjAddr: 0xC684, symBinAddr: 0x10000FB88, symSize: 0x20 }
  - { offset: 0x30181, size: 0x8, addend: 0x0, symName: __ZNSt3__116reverse_iteratorINS0_IPNS_10shared_ptrI7ElementEEEEEC2B8ne180100ES5_, symObjAddr: 0xC6A4, symBinAddr: 0x10000FBA8, symSize: 0x2C }
  - { offset: 0x301B9, size: 0x8, addend: 0x0, symName: __ZNSt3__116reverse_iteratorIPNS_10shared_ptrI7ElementEEEC2B8ne180100ES4_, symObjAddr: 0xC6D0, symBinAddr: 0x10000FBD4, symSize: 0x28 }
  - { offset: 0x301F1, size: 0x8, addend: 0x0, symName: __ZNSt3__114__split_bufferINS_10shared_ptrI7ElementEERNS_9allocatorIS3_EEED2Ev, symObjAddr: 0xC6F8, symBinAddr: 0x10000FBFC, symSize: 0x8C }
  - { offset: 0x3021D, size: 0x8, addend: 0x0, symName: __ZNSt3__114__split_bufferINS_10shared_ptrI7ElementEERNS_9allocatorIS3_EEE5clearB8ne180100Ev, symObjAddr: 0xC784, symBinAddr: 0x10000FC88, symSize: 0x28 }
  - { offset: 0x30243, size: 0x8, addend: 0x0, symName: __ZNKSt3__114__split_bufferINS_10shared_ptrI7ElementEERNS_9allocatorIS3_EEE8capacityB8ne180100Ev, symObjAddr: 0xC7AC, symBinAddr: 0x10000FCB0, symSize: 0x40 }
  - { offset: 0x30269, size: 0x8, addend: 0x0, symName: __ZNSt3__114__split_bufferINS_10shared_ptrI7ElementEERNS_9allocatorIS3_EEE17__destruct_at_endB8ne180100EPS3_, symObjAddr: 0xC7EC, symBinAddr: 0x10000FCF0, symSize: 0x2C }
  - { offset: 0x3029D, size: 0x8, addend: 0x0, symName: __ZNSt3__114__split_bufferINS_10shared_ptrI7ElementEERNS_9allocatorIS3_EEE17__destruct_at_endB8ne180100EPS3_NS_17integral_constantIbLb0EEE, symObjAddr: 0xC818, symBinAddr: 0x10000FD1C, symSize: 0x80 }
  - { offset: 0x302DD, size: 0x8, addend: 0x0, symName: __ZNKSt3__114__split_bufferINS_10shared_ptrI7ElementEERNS_9allocatorIS3_EEE9__end_capB8ne180100Ev, symObjAddr: 0xC898, symBinAddr: 0x10000FD9C, symSize: 0x28 }
  - { offset: 0x30303, size: 0x8, addend: 0x0, symName: __ZNKSt3__117__compressed_pairIPNS_10shared_ptrI7ElementEERNS_9allocatorIS3_EEE5firstB8ne180100Ev, symObjAddr: 0xC8C0, symBinAddr: 0x10000FDC4, symSize: 0x24 }
  - { offset: 0x30352, size: 0x8, addend: 0x0, symName: __ZNSt3__110shared_ptrI7ElementEC1B8ne180100I3BoxvEEONS0_IT_EE, symObjAddr: 0xC934, symBinAddr: 0x10000FE38, symSize: 0x34 }
  - { offset: 0x30395, size: 0x8, addend: 0x0, symName: __ZNSt3__110shared_ptrI3BoxED1B8ne180100Ev, symObjAddr: 0xC968, symBinAddr: 0x10000FE6C, symSize: 0x2C }
  - { offset: 0x303E8, size: 0x8, addend: 0x0, symName: __ZNSt3__110shared_ptrI7ElementEC1B8ne180100I4LinevEEONS0_IT_EE, symObjAddr: 0xC9E4, symBinAddr: 0x10000FEE8, symSize: 0x34 }
  - { offset: 0x3042B, size: 0x8, addend: 0x0, symName: __ZNSt3__110shared_ptrI4LineED1B8ne180100Ev, symObjAddr: 0xCA18, symBinAddr: 0x10000FF1C, symSize: 0x2C }
  - { offset: 0x30455, size: 0x8, addend: 0x0, symName: __ZNSt3__19allocatorI3BoxEC1B8ne180100Ev, symObjAddr: 0xCAEC, symBinAddr: 0x10000FFF0, symSize: 0x2C }
  - { offset: 0x304D6, size: 0x8, addend: 0x0, symName: __ZNSt3__118__allocation_guardINS_9allocatorINS_20__shared_ptr_emplaceI3BoxNS1_IS3_EEEEEEEC1B8ne180100IS4_EET_m, symObjAddr: 0xCB18, symBinAddr: 0x10001001C, symSize: 0x34 }
  - { offset: 0x30525, size: 0x8, addend: 0x0, symName: __ZNKSt3__118__allocation_guardINS_9allocatorINS_20__shared_ptr_emplaceI3BoxNS1_IS3_EEEEEEE5__getB8ne180100Ev, symObjAddr: 0xCB4C, symBinAddr: 0x100010050, symSize: 0x18 }
  - { offset: 0x3054B, size: 0x8, addend: 0x0, symName: __ZNSt3__120__shared_ptr_emplaceI3BoxNS_9allocatorIS1_EEEC1B8ne180100IJR5Tvec2IiES8_R5Tvec3IiEES3_Li0EEES3_DpOT_, symObjAddr: 0xCB64, symBinAddr: 0x100010068, symSize: 0x44 }
  - { offset: 0x305D5, size: 0x8, addend: 0x0, symName: __ZNSt3__118__allocation_guardINS_9allocatorINS_20__shared_ptr_emplaceI3BoxNS1_IS3_EEEEEEE13__release_ptrB8ne180100Ev, symObjAddr: 0xCBA8, symBinAddr: 0x1000100AC, symSize: 0x24 }
  - { offset: 0x30609, size: 0x8, addend: 0x0, symName: __ZNSt3__110shared_ptrI3BoxE27__create_with_control_blockB8ne180100IS1_NS_20__shared_ptr_emplaceIS1_NS_9allocatorIS1_EEEEEES2_PT_PT0_, symObjAddr: 0xCBCC, symBinAddr: 0x1000100D0, symSize: 0xA4 }
  - { offset: 0x3065E, size: 0x8, addend: 0x0, symName: __ZNSt3__120__shared_ptr_emplaceI3BoxNS_9allocatorIS1_EEE10__get_elemB8ne180100Ev, symObjAddr: 0xCC70, symBinAddr: 0x100010174, symSize: 0x28 }
  - { offset: 0x30684, size: 0x8, addend: 0x0, symName: __ZNSt3__118__allocation_guardINS_9allocatorINS_20__shared_ptr_emplaceI3BoxNS1_IS3_EEEEEEED1B8ne180100Ev, symObjAddr: 0xCC98, symBinAddr: 0x10001019C, symSize: 0x2C }
  - { offset: 0x306AE, size: 0x8, addend: 0x0, symName: __ZNSt3__118__allocation_guardINS_9allocatorINS_20__shared_ptr_emplaceI3BoxNS1_IS3_EEEEEEEC2B8ne180100IS4_EET_m, symObjAddr: 0xCCC4, symBinAddr: 0x1000101C8, symSize: 0x50 }
  - { offset: 0x306FD, size: 0x8, addend: 0x0, symName: __ZNSt3__19allocatorINS_20__shared_ptr_emplaceI3BoxNS0_IS2_EEEEEC1B8ne180100IS2_EERKNS0_IT_EE, symObjAddr: 0xCD14, symBinAddr: 0x100010218, symSize: 0x34 }
  - { offset: 0x3073A, size: 0x8, addend: 0x0, symName: __ZNSt3__116allocator_traitsINS_9allocatorINS_20__shared_ptr_emplaceI3BoxNS1_IS3_EEEEEEE8allocateB8ne180100ERS6_m, symObjAddr: 0xCD48, symBinAddr: 0x10001024C, symSize: 0x2C }
  - { offset: 0x3076D, size: 0x8, addend: 0x0, symName: __ZNSt3__19allocatorINS_20__shared_ptr_emplaceI3BoxNS0_IS2_EEEEEC2B8ne180100IS2_EERKNS0_IT_EE, symObjAddr: 0xCD74, symBinAddr: 0x100010278, symSize: 0x30 }
  - { offset: 0x307AA, size: 0x8, addend: 0x0, symName: __ZNSt3__116__non_trivial_ifILb1ENS_9allocatorINS_20__shared_ptr_emplaceI3BoxNS1_IS3_EEEEEEEC2B8ne180100Ev, symObjAddr: 0xCDA4, symBinAddr: 0x1000102A8, symSize: 0x14 }
  - { offset: 0x307D4, size: 0x8, addend: 0x0, symName: __ZNSt3__19allocatorINS_20__shared_ptr_emplaceI3BoxNS0_IS2_EEEEE8allocateB8ne180100Em, symObjAddr: 0xCDB8, symBinAddr: 0x1000102BC, symSize: 0x58 }
  - { offset: 0x30813, size: 0x8, addend: 0x0, symName: __ZNSt3__116allocator_traitsINS_9allocatorINS_20__shared_ptr_emplaceI3BoxNS1_IS3_EEEEEEE8max_sizeB8ne180100IS6_vEEmRKS6_, symObjAddr: 0xCE10, symBinAddr: 0x100010314, symSize: 0x24 }
  - { offset: 0x30841, size: 0x8, addend: 0x0, symName: __ZNKSt3__19allocatorINS_20__shared_ptr_emplaceI3BoxNS0_IS2_EEEEE8max_sizeB8ne180100Ev, symObjAddr: 0xCE34, symBinAddr: 0x100010338, symSize: 0x14 }
  - { offset: 0x30867, size: 0x8, addend: 0x0, symName: __ZNSt3__120__shared_ptr_emplaceI3BoxNS_9allocatorIS1_EEEC2B8ne180100IJR5Tvec2IiES8_R5Tvec3IiEES3_Li0EEES3_DpOT_, symObjAddr: 0xCE48, symBinAddr: 0x10001034C, symSize: 0xCC }
  - { offset: 0x30912, size: 0x8, addend: 0x0, symName: __ZNSt3__120__shared_ptr_emplaceI3BoxNS_9allocatorIS1_EEE8_StorageC1B8ne180100EOS3_, symObjAddr: 0xCF14, symBinAddr: 0x100010418, symSize: 0x34 }
  - { offset: 0x3094B, size: 0x8, addend: 0x0, symName: __ZNSt3__120__shared_ptr_emplaceI3BoxNS_9allocatorIS1_EEE11__get_allocB8ne180100Ev, symObjAddr: 0xCF48, symBinAddr: 0x10001044C, symSize: 0x28 }
  - { offset: 0x30977, size: 0x8, addend: 0x0, symName: __ZNSt3__116allocator_traitsINS_9allocatorI3BoxEEE9constructB8ne180100IS2_JR5Tvec2IiES8_R5Tvec3IiEEvEEvRS3_PT_DpOT0_, symObjAddr: 0xCF70, symBinAddr: 0x100010474, symSize: 0x44 }
  - { offset: 0x309F6, size: 0x8, addend: 0x0, symName: __ZNSt3__120__shared_ptr_emplaceI3BoxNS_9allocatorIS1_EEE8_StorageD1B8ne180100Ev, symObjAddr: 0xCFB4, symBinAddr: 0x1000104B8, symSize: 0x2C }
  - { offset: 0x30A20, size: 0x8, addend: 0x0, symName: __ZNSt3__120__shared_ptr_emplaceI3BoxNS_9allocatorIS1_EEED1Ev, symObjAddr: 0xCFE0, symBinAddr: 0x1000104E4, symSize: 0x2C }
  - { offset: 0x30A4C, size: 0x8, addend: 0x0, symName: __ZNSt3__120__shared_ptr_emplaceI3BoxNS_9allocatorIS1_EEED0Ev, symObjAddr: 0xD00C, symBinAddr: 0x100010510, symSize: 0x30 }
  - { offset: 0x30A78, size: 0x8, addend: 0x0, symName: __ZNSt3__120__shared_ptr_emplaceI3BoxNS_9allocatorIS1_EEE16__on_zero_sharedEv, symObjAddr: 0xD03C, symBinAddr: 0x100010540, symSize: 0x24 }
  - { offset: 0x30A9E, size: 0x8, addend: 0x0, symName: __ZNSt3__120__shared_ptr_emplaceI3BoxNS_9allocatorIS1_EEE21__on_zero_shared_weakEv, symObjAddr: 0xD060, symBinAddr: 0x100010564, symSize: 0x5C }
  - { offset: 0x30ADF, size: 0x8, addend: 0x0, symName: __ZNSt3__120__shared_ptr_emplaceI3BoxNS_9allocatorIS1_EEE8_StorageC2B8ne180100EOS3_, symObjAddr: 0xD0BC, symBinAddr: 0x1000105C0, symSize: 0x30 }
  - { offset: 0x30B18, size: 0x8, addend: 0x0, symName: __ZNSt3__120__shared_ptr_emplaceI3BoxNS_9allocatorIS1_EEE8_Storage11__get_allocB8ne180100Ev, symObjAddr: 0xD0EC, symBinAddr: 0x1000105F0, symSize: 0x3C }
  - { offset: 0x30B6B, size: 0x8, addend: 0x0, symName: __ZNSt3__117__compressed_pairINS_9allocatorI3BoxEES2_E16__get_first_baseB8ne180100EPS4_, symObjAddr: 0xD128, symBinAddr: 0x10001062C, symSize: 0x14 }
  - { offset: 0x30B8E, size: 0x8, addend: 0x0, symName: __ZNSt3__19allocatorI3BoxE9constructB8ne180100IS1_JR5Tvec2IiES6_R5Tvec3IiEEEEvPT_DpOT0_, symObjAddr: 0xD13C, symBinAddr: 0x100010640, symSize: 0x78 }
  - { offset: 0x30C0A, size: 0x8, addend: 0x0, symName: __ZN3BoxC1E5Tvec2IiES1_5Tvec3IiE, symObjAddr: 0xD1B4, symBinAddr: 0x1000106B8, symSize: 0x44 }
  - { offset: 0x30C61, size: 0x8, addend: 0x0, symName: __ZN3BoxC2E5Tvec2IiES1_5Tvec3IiE, symObjAddr: 0xD1F8, symBinAddr: 0x1000106FC, symSize: 0xB4 }
  - { offset: 0x30CB8, size: 0x8, addend: 0x0, symName: __ZN7ElementC2Ev, symObjAddr: 0xD2AC, symBinAddr: 0x1000107B0, symSize: 0x24 }
  - { offset: 0x30CE4, size: 0x8, addend: 0x0, symName: __ZN7ElementD2Ev, symObjAddr: 0xD2D0, symBinAddr: 0x1000107D4, symSize: 0x14 }
  - { offset: 0x30D0E, size: 0x8, addend: 0x0, symName: __ZN3BoxD1Ev, symObjAddr: 0xD2E4, symBinAddr: 0x1000107E8, symSize: 0x2C }
  - { offset: 0x30D3A, size: 0x8, addend: 0x0, symName: __ZN3BoxD0Ev, symObjAddr: 0xD310, symBinAddr: 0x100010814, symSize: 0x30 }
  - { offset: 0x30D66, size: 0x8, addend: 0x0, symName: __ZNK3Box4drawER6Screen, symObjAddr: 0xD340, symBinAddr: 0x100010844, symSize: 0x7C }
  - { offset: 0x30D9A, size: 0x8, addend: 0x0, symName: __ZNK7Element4drawER6Screen5Tvec3IiES3_S2_IfE, symObjAddr: 0xD3BC, symBinAddr: 0x1000108C0, symSize: 0x20 }
  - { offset: 0x30DFB, size: 0x8, addend: 0x0, symName: __ZNK3Box15printAttributesEv, symObjAddr: 0xD3DC, symBinAddr: 0x1000108E0, symSize: 0x1CC }
  - { offset: 0x30E21, size: 0x8, addend: 0x0, symName: __ZNK3Box11writeToFileERNSt3__113basic_ostreamIcNS0_11char_traitsIcEEEE, symObjAddr: 0xD5A8, symBinAddr: 0x100010AAC, symSize: 0x78 }
  - { offset: 0x30E55, size: 0x8, addend: 0x0, symName: __ZN3Box6rotateEv, symObjAddr: 0xD620, symBinAddr: 0x100010B24, symSize: 0x30 }
  - { offset: 0x30E7B, size: 0x8, addend: 0x0, symName: __ZNK3Box13checkInBoundsEii, symObjAddr: 0xD650, symBinAddr: 0x100010B54, symSize: 0x1C }
  - { offset: 0x30EBD, size: 0x8, addend: 0x0, symName: __ZN7ElementD1Ev, symObjAddr: 0xD66C, symBinAddr: 0x100010B70, symSize: 0x2C }
  - { offset: 0x30EE7, size: 0x8, addend: 0x0, symName: __ZN7ElementD0Ev, symObjAddr: 0xD698, symBinAddr: 0x100010B9C, symSize: 0x30 }
  - { offset: 0x30F11, size: 0x8, addend: 0x0, symName: __ZNK7Element4drawER6Screen, symObjAddr: 0xD6C8, symBinAddr: 0x100010BCC, symSize: 0x14 }
  - { offset: 0x30F45, size: 0x8, addend: 0x0, symName: __ZNK7Element15printAttributesEv, symObjAddr: 0xD6DC, symBinAddr: 0x100010BE0, symSize: 0x10 }
  - { offset: 0x30F6B, size: 0x8, addend: 0x0, symName: __ZNK7Element11writeToFileERNSt3__113basic_ostreamIcNS0_11char_traitsIcEEEE, symObjAddr: 0xD6EC, symBinAddr: 0x100010BF0, symSize: 0x14 }
  - { offset: 0x30F9F, size: 0x8, addend: 0x0, symName: __ZN7Element6rotateEv, symObjAddr: 0xD700, symBinAddr: 0x100010C04, symSize: 0x3C }
  - { offset: 0x30FC5, size: 0x8, addend: 0x0, symName: __ZNK7Element13checkInBoundsEii, symObjAddr: 0xD73C, symBinAddr: 0x100010C40, symSize: 0x1C }
  - { offset: 0x31007, size: 0x8, addend: 0x0, symName: __ZN3BoxD2Ev, symObjAddr: 0xD758, symBinAddr: 0x100010C5C, symSize: 0x2C }
  - { offset: 0x31033, size: 0x8, addend: 0x0, symName: __ZN6Screen7drawBoxE5Tvec2IiES1_5Tvec3IiE, symObjAddr: 0xD784, symBinAddr: 0x100010C88, symSize: 0x10C }
  - { offset: 0x310BE, size: 0x8, addend: 0x0, symName: __ZN6Screen9fixMinMaxER5Tvec2IiES2_, symObjAddr: 0xD890, symBinAddr: 0x100010D94, symSize: 0xA4 }
  - { offset: 0x31100, size: 0x8, addend: 0x0, symName: __ZN6Screen10colorPixelE5Tvec2IiE5Tvec3IiE, symObjAddr: 0xD934, symBinAddr: 0x100010E38, symSize: 0x180 }
  - { offset: 0x3116E, size: 0x8, addend: 0x0, symName: __ZNK5Tvec2IiE11writeToFileERNSt3__113basic_ostreamIcNS1_11char_traitsIcEEEE, symObjAddr: 0xDAF0, symBinAddr: 0x100010FF4, symSize: 0xA0 }
  - { offset: 0x311A2, size: 0x8, addend: 0x0, symName: __ZNK5Tvec3IiE11writeToFileERNSt3__113basic_ostreamIcNS1_11char_traitsIcEEEE, symObjAddr: 0xDB90, symBinAddr: 0x100011094, symSize: 0xCC }
  - { offset: 0x311D6, size: 0x8, addend: 0x0, symName: __ZNSt3__120__shared_ptr_emplaceI3BoxNS_9allocatorIS1_EEE8_StorageD2B8ne180100Ev, symObjAddr: 0xDC5C, symBinAddr: 0x100011160, symSize: 0x2C }
  - { offset: 0x31200, size: 0x8, addend: 0x0, symName: __ZNSt3__120__shared_ptr_emplaceI3BoxNS_9allocatorIS1_EEED2Ev, symObjAddr: 0xDC88, symBinAddr: 0x10001118C, symSize: 0x48 }
  - { offset: 0x3122C, size: 0x8, addend: 0x0, symName: __ZNSt3__120__shared_ptr_emplaceI3BoxNS_9allocatorIS1_EEE21__on_zero_shared_implB8ne180100IS3_Li0EEEvv, symObjAddr: 0xDCD0, symBinAddr: 0x1000111D4, symSize: 0x44 }
  - { offset: 0x3127C, size: 0x8, addend: 0x0, symName: __ZNSt3__116allocator_traitsINS_9allocatorI3BoxEEE7destroyB8ne180100IS2_vEEvRS3_PT_, symObjAddr: 0xDD14, symBinAddr: 0x100011218, symSize: 0x2C }
  - { offset: 0x312B9, size: 0x8, addend: 0x0, symName: __ZNSt3__19allocatorI3BoxE7destroyB8ne180100EPS1_, symObjAddr: 0xDD40, symBinAddr: 0x100011244, symSize: 0x30 }
  - { offset: 0x312ED, size: 0x8, addend: 0x0, symName: __ZNSt3__116allocator_traitsINS_9allocatorINS_20__shared_ptr_emplaceI3BoxNS1_IS3_EEEEEEE10deallocateB8ne180100ERS6_PS5_m, symObjAddr: 0xDD70, symBinAddr: 0x100011274, symSize: 0x34 }
  - { offset: 0x3132F, size: 0x8, addend: 0x0, symName: __ZNSt3__114pointer_traitsIPNS_20__shared_ptr_emplaceI3BoxNS_9allocatorIS2_EEEEE10pointer_toB8ne180100ERS5_, symObjAddr: 0xDDA4, symBinAddr: 0x1000112A8, symSize: 0x14 }
  - { offset: 0x31352, size: 0x8, addend: 0x0, symName: __ZNSt3__19allocatorINS_20__shared_ptr_emplaceI3BoxNS0_IS2_EEEEE10deallocateB8ne180100EPS4_m, symObjAddr: 0xDDB8, symBinAddr: 0x1000112BC, symSize: 0x40 }
  - { offset: 0x31394, size: 0x8, addend: 0x0, symName: __ZNSt3__110shared_ptrI3BoxEC1B8ne180100Ev, symObjAddr: 0xDDF8, symBinAddr: 0x1000112FC, symSize: 0x2C }
  - { offset: 0x313BE, size: 0x8, addend: 0x0, symName: __ZNSt3__110shared_ptrI3BoxE18__enable_weak_thisB8ne180100Ez, symObjAddr: 0xDE24, symBinAddr: 0x100011328, symSize: 0x10 }
  - { offset: 0x313E5, size: 0x8, addend: 0x0, symName: __ZNSt3__110shared_ptrI3BoxEC2B8ne180100Ev, symObjAddr: 0xDE34, symBinAddr: 0x100011338, symSize: 0x1C }
  - { offset: 0x3140F, size: 0x8, addend: 0x0, symName: __ZNSt3__120__shared_ptr_emplaceI3BoxNS_9allocatorIS1_EEE8_Storage10__get_elemB8ne180100Ev, symObjAddr: 0xDE50, symBinAddr: 0x100011354, symSize: 0x3C }
  - { offset: 0x31462, size: 0x8, addend: 0x0, symName: __ZNSt3__117__compressed_pairINS_9allocatorI3BoxEES2_E17__get_second_baseB8ne180100EPS4_, symObjAddr: 0xDE8C, symBinAddr: 0x100011390, symSize: 0x14 }
  - { offset: 0x31485, size: 0x8, addend: 0x0, symName: __ZNSt3__118__allocation_guardINS_9allocatorINS_20__shared_ptr_emplaceI3BoxNS1_IS3_EEEEEEED2B8ne180100Ev, symObjAddr: 0xDEA0, symBinAddr: 0x1000113A4, symSize: 0x2C }
  - { offset: 0x314AF, size: 0x8, addend: 0x0, symName: __ZNSt3__118__allocation_guardINS_9allocatorINS_20__shared_ptr_emplaceI3BoxNS1_IS3_EEEEEEE9__destroyB8ne180100Ev, symObjAddr: 0xDECC, symBinAddr: 0x1000113D0, symSize: 0x4C }
  - { offset: 0x314D5, size: 0x8, addend: 0x0, symName: __ZNSt3__19allocatorI3BoxEC2B8ne180100Ev, symObjAddr: 0xDF18, symBinAddr: 0x10001141C, symSize: 0x2C }
  - { offset: 0x314FF, size: 0x8, addend: 0x0, symName: __ZNSt3__116__non_trivial_ifILb1ENS_9allocatorI3BoxEEEC2B8ne180100Ev, symObjAddr: 0xDF44, symBinAddr: 0x100011448, symSize: 0x14 }
  - { offset: 0x31529, size: 0x8, addend: 0x0, symName: __ZNSt3__110shared_ptrI7ElementEC2B8ne180100I3BoxvEEONS0_IT_EE, symObjAddr: 0xDF58, symBinAddr: 0x10001145C, symSize: 0x40 }
  - { offset: 0x3156C, size: 0x8, addend: 0x0, symName: __ZNSt3__110shared_ptrI3BoxED2B8ne180100Ev, symObjAddr: 0xDF98, symBinAddr: 0x10001149C, symSize: 0x54 }
  - { offset: 0x31596, size: 0x8, addend: 0x0, symName: __ZNSt3__119__shared_weak_count16__release_sharedB8ne180100Ev, symObjAddr: 0xDFEC, symBinAddr: 0x1000114F0, symSize: 0x3C }
  - { offset: 0x315BC, size: 0x8, addend: 0x0, symName: __ZNSt3__114__shared_count16__release_sharedB8ne180100Ev, symObjAddr: 0xE028, symBinAddr: 0x10001152C, symSize: 0x7C }
  - { offset: 0x315E2, size: 0x8, addend: 0x0, symName: __ZNSt3__19allocatorI4LineEC1B8ne180100Ev, symObjAddr: 0xE17C, symBinAddr: 0x100011680, symSize: 0x2C }
  - { offset: 0x31663, size: 0x8, addend: 0x0, symName: __ZNSt3__118__allocation_guardINS_9allocatorINS_20__shared_ptr_emplaceI4LineNS1_IS3_EEEEEEEC1B8ne180100IS4_EET_m, symObjAddr: 0xE1A8, symBinAddr: 0x1000116AC, symSize: 0x34 }
  - { offset: 0x316B2, size: 0x8, addend: 0x0, symName: __ZNKSt3__118__allocation_guardINS_9allocatorINS_20__shared_ptr_emplaceI4LineNS1_IS3_EEEEEEE5__getB8ne180100Ev, symObjAddr: 0xE1DC, symBinAddr: 0x1000116E0, symSize: 0x18 }
  - { offset: 0x316D8, size: 0x8, addend: 0x0, symName: __ZNSt3__120__shared_ptr_emplaceI4LineNS_9allocatorIS1_EEEC1B8ne180100IJR5Tvec2IiES8_R5Tvec3IiEES3_Li0EEES3_DpOT_, symObjAddr: 0xE1F4, symBinAddr: 0x1000116F8, symSize: 0x44 }
  - { offset: 0x31762, size: 0x8, addend: 0x0, symName: __ZNSt3__118__allocation_guardINS_9allocatorINS_20__shared_ptr_emplaceI4LineNS1_IS3_EEEEEEE13__release_ptrB8ne180100Ev, symObjAddr: 0xE238, symBinAddr: 0x10001173C, symSize: 0x24 }
  - { offset: 0x31796, size: 0x8, addend: 0x0, symName: __ZNSt3__110shared_ptrI4LineE27__create_with_control_blockB8ne180100IS1_NS_20__shared_ptr_emplaceIS1_NS_9allocatorIS1_EEEEEES2_PT_PT0_, symObjAddr: 0xE25C, symBinAddr: 0x100011760, symSize: 0xA4 }
  - { offset: 0x317EB, size: 0x8, addend: 0x0, symName: __ZNSt3__120__shared_ptr_emplaceI4LineNS_9allocatorIS1_EEE10__get_elemB8ne180100Ev, symObjAddr: 0xE300, symBinAddr: 0x100011804, symSize: 0x28 }
  - { offset: 0x31811, size: 0x8, addend: 0x0, symName: __ZNSt3__118__allocation_guardINS_9allocatorINS_20__shared_ptr_emplaceI4LineNS1_IS3_EEEEEEED1B8ne180100Ev, symObjAddr: 0xE328, symBinAddr: 0x10001182C, symSize: 0x2C }
  - { offset: 0x3183B, size: 0x8, addend: 0x0, symName: __ZNSt3__118__allocation_guardINS_9allocatorINS_20__shared_ptr_emplaceI4LineNS1_IS3_EEEEEEEC2B8ne180100IS4_EET_m, symObjAddr: 0xE354, symBinAddr: 0x100011858, symSize: 0x50 }
  - { offset: 0x3188A, size: 0x8, addend: 0x0, symName: __ZNSt3__19allocatorINS_20__shared_ptr_emplaceI4LineNS0_IS2_EEEEEC1B8ne180100IS2_EERKNS0_IT_EE, symObjAddr: 0xE3A4, symBinAddr: 0x1000118A8, symSize: 0x34 }
  - { offset: 0x318C7, size: 0x8, addend: 0x0, symName: __ZNSt3__116allocator_traitsINS_9allocatorINS_20__shared_ptr_emplaceI4LineNS1_IS3_EEEEEEE8allocateB8ne180100ERS6_m, symObjAddr: 0xE3D8, symBinAddr: 0x1000118DC, symSize: 0x2C }
  - { offset: 0x318FA, size: 0x8, addend: 0x0, symName: __ZNSt3__19allocatorINS_20__shared_ptr_emplaceI4LineNS0_IS2_EEEEEC2B8ne180100IS2_EERKNS0_IT_EE, symObjAddr: 0xE404, symBinAddr: 0x100011908, symSize: 0x30 }
  - { offset: 0x31937, size: 0x8, addend: 0x0, symName: __ZNSt3__116__non_trivial_ifILb1ENS_9allocatorINS_20__shared_ptr_emplaceI4LineNS1_IS3_EEEEEEEC2B8ne180100Ev, symObjAddr: 0xE434, symBinAddr: 0x100011938, symSize: 0x14 }
  - { offset: 0x31961, size: 0x8, addend: 0x0, symName: __ZNSt3__19allocatorINS_20__shared_ptr_emplaceI4LineNS0_IS2_EEEEE8allocateB8ne180100Em, symObjAddr: 0xE448, symBinAddr: 0x10001194C, symSize: 0x5C }
  - { offset: 0x319A0, size: 0x8, addend: 0x0, symName: __ZNSt3__116allocator_traitsINS_9allocatorINS_20__shared_ptr_emplaceI4LineNS1_IS3_EEEEEEE8max_sizeB8ne180100IS6_vEEmRKS6_, symObjAddr: 0xE4A4, symBinAddr: 0x1000119A8, symSize: 0x24 }
  - { offset: 0x319CE, size: 0x8, addend: 0x0, symName: __ZNKSt3__19allocatorINS_20__shared_ptr_emplaceI4LineNS0_IS2_EEEEE8max_sizeB8ne180100Ev, symObjAddr: 0xE4C8, symBinAddr: 0x1000119CC, symSize: 0x18 }
  - { offset: 0x319F4, size: 0x8, addend: 0x0, symName: __ZNSt3__120__shared_ptr_emplaceI4LineNS_9allocatorIS1_EEEC2B8ne180100IJR5Tvec2IiES8_R5Tvec3IiEES3_Li0EEES3_DpOT_, symObjAddr: 0xE4E0, symBinAddr: 0x1000119E4, symSize: 0xCC }
  - { offset: 0x31A9F, size: 0x8, addend: 0x0, symName: __ZNSt3__120__shared_ptr_emplaceI4LineNS_9allocatorIS1_EEE8_StorageC1B8ne180100EOS3_, symObjAddr: 0xE5AC, symBinAddr: 0x100011AB0, symSize: 0x34 }
  - { offset: 0x31AD8, size: 0x8, addend: 0x0, symName: __ZNSt3__120__shared_ptr_emplaceI4LineNS_9allocatorIS1_EEE11__get_allocB8ne180100Ev, symObjAddr: 0xE5E0, symBinAddr: 0x100011AE4, symSize: 0x28 }
  - { offset: 0x31B04, size: 0x8, addend: 0x0, symName: __ZNSt3__116allocator_traitsINS_9allocatorI4LineEEE9constructB8ne180100IS2_JR5Tvec2IiES8_R5Tvec3IiEEvEEvRS3_PT_DpOT0_, symObjAddr: 0xE608, symBinAddr: 0x100011B0C, symSize: 0x44 }
  - { offset: 0x31B83, size: 0x8, addend: 0x0, symName: __ZNSt3__120__shared_ptr_emplaceI4LineNS_9allocatorIS1_EEE8_StorageD1B8ne180100Ev, symObjAddr: 0xE64C, symBinAddr: 0x100011B50, symSize: 0x2C }
  - { offset: 0x31BAD, size: 0x8, addend: 0x0, symName: __ZNSt3__120__shared_ptr_emplaceI4LineNS_9allocatorIS1_EEED1Ev, symObjAddr: 0xE678, symBinAddr: 0x100011B7C, symSize: 0x2C }
  - { offset: 0x31BD9, size: 0x8, addend: 0x0, symName: __ZNSt3__120__shared_ptr_emplaceI4LineNS_9allocatorIS1_EEED0Ev, symObjAddr: 0xE6A4, symBinAddr: 0x100011BA8, symSize: 0x30 }
  - { offset: 0x31C05, size: 0x8, addend: 0x0, symName: __ZNSt3__120__shared_ptr_emplaceI4LineNS_9allocatorIS1_EEE16__on_zero_sharedEv, symObjAddr: 0xE6D4, symBinAddr: 0x100011BD8, symSize: 0x24 }
  - { offset: 0x31C2B, size: 0x8, addend: 0x0, symName: __ZNSt3__120__shared_ptr_emplaceI4LineNS_9allocatorIS1_EEE21__on_zero_shared_weakEv, symObjAddr: 0xE6F8, symBinAddr: 0x100011BFC, symSize: 0x5C }
  - { offset: 0x31C6C, size: 0x8, addend: 0x0, symName: __ZNSt3__120__shared_ptr_emplaceI4LineNS_9allocatorIS1_EEE8_StorageC2B8ne180100EOS3_, symObjAddr: 0xE754, symBinAddr: 0x100011C58, symSize: 0x30 }
  - { offset: 0x31CA5, size: 0x8, addend: 0x0, symName: __ZNSt3__120__shared_ptr_emplaceI4LineNS_9allocatorIS1_EEE8_Storage11__get_allocB8ne180100Ev, symObjAddr: 0xE784, symBinAddr: 0x100011C88, symSize: 0x3C }
  - { offset: 0x31CF8, size: 0x8, addend: 0x0, symName: __ZNSt3__117__compressed_pairINS_9allocatorI4LineEES2_E16__get_first_baseB8ne180100EPS4_, symObjAddr: 0xE7C0, symBinAddr: 0x100011CC4, symSize: 0x14 }
  - { offset: 0x31D1B, size: 0x8, addend: 0x0, symName: __ZNSt3__19allocatorI4LineE9constructB8ne180100IS1_JR5Tvec2IiES6_R5Tvec3IiEEEEvPT_DpOT0_, symObjAddr: 0xE7D4, symBinAddr: 0x100011CD8, symSize: 0x78 }
  - { offset: 0x31D97, size: 0x8, addend: 0x0, symName: __ZN4LineC1E5Tvec2IiES1_5Tvec3IiE, symObjAddr: 0xE84C, symBinAddr: 0x100011D50, symSize: 0x44 }
  - { offset: 0x31DEE, size: 0x8, addend: 0x0, symName: __ZN4LineC2E5Tvec2IiES1_5Tvec3IiE, symObjAddr: 0xE890, symBinAddr: 0x100011D94, symSize: 0x100 }
  - { offset: 0x31E45, size: 0x8, addend: 0x0, symName: __ZN5Tvec2IiEC1Ev, symObjAddr: 0xE990, symBinAddr: 0x100011E94, symSize: 0x2C }
  - { offset: 0x31E6F, size: 0x8, addend: 0x0, symName: __ZNK4Line15calculateCenterEv, symObjAddr: 0xE9BC, symBinAddr: 0x100011EC0, symSize: 0x6C }
  - { offset: 0x31E95, size: 0x8, addend: 0x0, symName: __ZN5Tvec2IiEaSERKS0_, symObjAddr: 0xEA28, symBinAddr: 0x100011F2C, symSize: 0x38 }
  - { offset: 0x31EC9, size: 0x8, addend: 0x0, symName: __ZNK4Line15calculateLengthEv, symObjAddr: 0xEA60, symBinAddr: 0x100011F64, symSize: 0x78 }
  - { offset: 0x31EEF, size: 0x8, addend: 0x0, symName: __ZN4LineD1Ev, symObjAddr: 0xEAD8, symBinAddr: 0x100011FDC, symSize: 0x2C }
  - { offset: 0x31F1B, size: 0x8, addend: 0x0, symName: __ZN4LineD0Ev, symObjAddr: 0xEB04, symBinAddr: 0x100012008, symSize: 0x30 }
  - { offset: 0x31F47, size: 0x8, addend: 0x0, symName: __ZNK4Line4drawER6Screen, symObjAddr: 0xEB34, symBinAddr: 0x100012038, symSize: 0x7C }
  - { offset: 0x31F7B, size: 0x8, addend: 0x0, symName: __ZNK4Line15printAttributesEv, symObjAddr: 0xEBB0, symBinAddr: 0x1000120B4, symSize: 0x238 }
  - { offset: 0x31FA1, size: 0x8, addend: 0x0, symName: __ZNK4Line11writeToFileERNSt3__113basic_ostreamIcNS0_11char_traitsIcEEEE, symObjAddr: 0xEDE8, symBinAddr: 0x1000122EC, symSize: 0x78 }
  - { offset: 0x31FD5, size: 0x8, addend: 0x0, symName: __ZN4Line6rotateEv, symObjAddr: 0xEE60, symBinAddr: 0x100012364, symSize: 0x98 }
  - { offset: 0x31FFB, size: 0x8, addend: 0x0, symName: __ZNK4Line13checkInBoundsEii, symObjAddr: 0xEEF8, symBinAddr: 0x1000123FC, symSize: 0x1C }
  - { offset: 0x3203D, size: 0x8, addend: 0x0, symName: __ZN5Tvec2IiEC2Ev, symObjAddr: 0xEF14, symBinAddr: 0x100012418, symSize: 0x2C }
  - { offset: 0x32067, size: 0x8, addend: 0x0, symName: __ZN4LineD2Ev, symObjAddr: 0xEFB0, symBinAddr: 0x1000124B4, symSize: 0x2C }
  - { offset: 0x32093, size: 0x8, addend: 0x0, symName: __ZN6Screen17drawLineBresenhamE5Tvec2IiES1_5Tvec3IiE, symObjAddr: 0xEFDC, symBinAddr: 0x1000124E0, symSize: 0x250 }
  - { offset: 0x32181, size: 0x8, addend: 0x0, symName: __ZNK4Line12adjustLengthERK5Tvec2IiE, symObjAddr: 0xF22C, symBinAddr: 0x100012730, symSize: 0x118 }
  - { offset: 0x32209, size: 0x8, addend: 0x0, symName: __ZNK4Line23rotatePointAroundCenterERK5Tvec2IiE, symObjAddr: 0xF344, symBinAddr: 0x100012848, symSize: 0x15C }
  - { offset: 0x32275, size: 0x8, addend: 0x0, symName: __ZNSt3__120__shared_ptr_emplaceI4LineNS_9allocatorIS1_EEE8_StorageD2B8ne180100Ev, symObjAddr: 0xF4A0, symBinAddr: 0x1000129A4, symSize: 0x2C }
  - { offset: 0x3229F, size: 0x8, addend: 0x0, symName: __ZNSt3__120__shared_ptr_emplaceI4LineNS_9allocatorIS1_EEED2Ev, symObjAddr: 0xF4CC, symBinAddr: 0x1000129D0, symSize: 0x48 }
  - { offset: 0x322CB, size: 0x8, addend: 0x0, symName: __ZNSt3__120__shared_ptr_emplaceI4LineNS_9allocatorIS1_EEE21__on_zero_shared_implB8ne180100IS3_Li0EEEvv, symObjAddr: 0xF514, symBinAddr: 0x100012A18, symSize: 0x44 }
  - { offset: 0x3231B, size: 0x8, addend: 0x0, symName: __ZNSt3__116allocator_traitsINS_9allocatorI4LineEEE7destroyB8ne180100IS2_vEEvRS3_PT_, symObjAddr: 0xF558, symBinAddr: 0x100012A5C, symSize: 0x2C }
  - { offset: 0x32358, size: 0x8, addend: 0x0, symName: __ZNSt3__19allocatorI4LineE7destroyB8ne180100EPS1_, symObjAddr: 0xF584, symBinAddr: 0x100012A88, symSize: 0x30 }
  - { offset: 0x3238C, size: 0x8, addend: 0x0, symName: __ZNSt3__116allocator_traitsINS_9allocatorINS_20__shared_ptr_emplaceI4LineNS1_IS3_EEEEEEE10deallocateB8ne180100ERS6_PS5_m, symObjAddr: 0xF5B4, symBinAddr: 0x100012AB8, symSize: 0x34 }
  - { offset: 0x323CE, size: 0x8, addend: 0x0, symName: __ZNSt3__114pointer_traitsIPNS_20__shared_ptr_emplaceI4LineNS_9allocatorIS2_EEEEE10pointer_toB8ne180100ERS5_, symObjAddr: 0xF5E8, symBinAddr: 0x100012AEC, symSize: 0x14 }
  - { offset: 0x323F1, size: 0x8, addend: 0x0, symName: __ZNSt3__19allocatorINS_20__shared_ptr_emplaceI4LineNS0_IS2_EEEEE10deallocateB8ne180100EPS4_m, symObjAddr: 0xF5FC, symBinAddr: 0x100012B00, symSize: 0x44 }
  - { offset: 0x32433, size: 0x8, addend: 0x0, symName: __ZNSt3__110shared_ptrI4LineEC1B8ne180100Ev, symObjAddr: 0xF640, symBinAddr: 0x100012B44, symSize: 0x2C }
  - { offset: 0x3245D, size: 0x8, addend: 0x0, symName: __ZNSt3__110shared_ptrI4LineE18__enable_weak_thisB8ne180100Ez, symObjAddr: 0xF66C, symBinAddr: 0x100012B70, symSize: 0x10 }
  - { offset: 0x32484, size: 0x8, addend: 0x0, symName: __ZNSt3__110shared_ptrI4LineEC2B8ne180100Ev, symObjAddr: 0xF67C, symBinAddr: 0x100012B80, symSize: 0x1C }
  - { offset: 0x324AE, size: 0x8, addend: 0x0, symName: __ZNSt3__120__shared_ptr_emplaceI4LineNS_9allocatorIS1_EEE8_Storage10__get_elemB8ne180100Ev, symObjAddr: 0xF698, symBinAddr: 0x100012B9C, symSize: 0x3C }
  - { offset: 0x32501, size: 0x8, addend: 0x0, symName: __ZNSt3__117__compressed_pairINS_9allocatorI4LineEES2_E17__get_second_baseB8ne180100EPS4_, symObjAddr: 0xF6D4, symBinAddr: 0x100012BD8, symSize: 0x14 }
  - { offset: 0x32524, size: 0x8, addend: 0x0, symName: __ZNSt3__118__allocation_guardINS_9allocatorINS_20__shared_ptr_emplaceI4LineNS1_IS3_EEEEEEED2B8ne180100Ev, symObjAddr: 0xF6E8, symBinAddr: 0x100012BEC, symSize: 0x2C }
  - { offset: 0x3254E, size: 0x8, addend: 0x0, symName: __ZNSt3__118__allocation_guardINS_9allocatorINS_20__shared_ptr_emplaceI4LineNS1_IS3_EEEEEEE9__destroyB8ne180100Ev, symObjAddr: 0xF714, symBinAddr: 0x100012C18, symSize: 0x4C }
  - { offset: 0x32574, size: 0x8, addend: 0x0, symName: __ZNSt3__19allocatorI4LineEC2B8ne180100Ev, symObjAddr: 0xF760, symBinAddr: 0x100012C64, symSize: 0x2C }
  - { offset: 0x3259E, size: 0x8, addend: 0x0, symName: __ZNSt3__116__non_trivial_ifILb1ENS_9allocatorI4LineEEEC2B8ne180100Ev, symObjAddr: 0xF78C, symBinAddr: 0x100012C90, symSize: 0x14 }
  - { offset: 0x325C8, size: 0x8, addend: 0x0, symName: __ZNSt3__110shared_ptrI7ElementEC2B8ne180100I4LinevEEONS0_IT_EE, symObjAddr: 0xF7A0, symBinAddr: 0x100012CA4, symSize: 0x40 }
  - { offset: 0x3260B, size: 0x8, addend: 0x0, symName: __ZNSt3__110shared_ptrI4LineED2B8ne180100Ev, symObjAddr: 0xF7E0, symBinAddr: 0x100012CE4, symSize: 0x54 }
  - { offset: 0x32635, size: 0x8, addend: 0x0, symName: __ZN5Tvec3IiEC1Ev, symObjAddr: 0xF834, symBinAddr: 0x100012D38, symSize: 0x2C }
  - { offset: 0x3265F, size: 0x8, addend: 0x0, symName: __ZN5Tvec3IiEC2Ev, symObjAddr: 0xF860, symBinAddr: 0x100012D64, symSize: 0x38 }
  - { offset: 0x326B2, size: 0x8, addend: 0x0, symName: __ZNSt3__110shared_ptrI7ElementEC1B8ne180100I5PointvEEONS0_IT_EE, symObjAddr: 0xF8E0, symBinAddr: 0x100012DE4, symSize: 0x34 }
  - { offset: 0x326F5, size: 0x8, addend: 0x0, symName: __ZNSt3__110shared_ptrI5PointED1B8ne180100Ev, symObjAddr: 0xF914, symBinAddr: 0x100012E18, symSize: 0x2C }
  - { offset: 0x3271F, size: 0x8, addend: 0x0, symName: __ZNSt3__19allocatorI5PointEC1B8ne180100Ev, symObjAddr: 0xF9E0, symBinAddr: 0x100012EE4, symSize: 0x2C }
  - { offset: 0x327A0, size: 0x8, addend: 0x0, symName: __ZNSt3__118__allocation_guardINS_9allocatorINS_20__shared_ptr_emplaceI5PointNS1_IS3_EEEEEEEC1B8ne180100IS4_EET_m, symObjAddr: 0xFA0C, symBinAddr: 0x100012F10, symSize: 0x34 }
  - { offset: 0x327EF, size: 0x8, addend: 0x0, symName: __ZNKSt3__118__allocation_guardINS_9allocatorINS_20__shared_ptr_emplaceI5PointNS1_IS3_EEEEEEE5__getB8ne180100Ev, symObjAddr: 0xFA40, symBinAddr: 0x100012F44, symSize: 0x18 }
  - { offset: 0x32815, size: 0x8, addend: 0x0, symName: __ZNSt3__120__shared_ptr_emplaceI5PointNS_9allocatorIS1_EEEC1B8ne180100IJR5Tvec2IiER5Tvec3IiEES3_Li0EEES3_DpOT_, symObjAddr: 0xFA58, symBinAddr: 0x100012F5C, symSize: 0x3C }
  - { offset: 0x3288B, size: 0x8, addend: 0x0, symName: __ZNSt3__118__allocation_guardINS_9allocatorINS_20__shared_ptr_emplaceI5PointNS1_IS3_EEEEEEE13__release_ptrB8ne180100Ev, symObjAddr: 0xFA94, symBinAddr: 0x100012F98, symSize: 0x24 }
  - { offset: 0x328BF, size: 0x8, addend: 0x0, symName: __ZNSt3__110shared_ptrI5PointE27__create_with_control_blockB8ne180100IS1_NS_20__shared_ptr_emplaceIS1_NS_9allocatorIS1_EEEEEES2_PT_PT0_, symObjAddr: 0xFAB8, symBinAddr: 0x100012FBC, symSize: 0xA4 }
  - { offset: 0x32914, size: 0x8, addend: 0x0, symName: __ZNSt3__120__shared_ptr_emplaceI5PointNS_9allocatorIS1_EEE10__get_elemB8ne180100Ev, symObjAddr: 0xFB5C, symBinAddr: 0x100013060, symSize: 0x28 }
  - { offset: 0x3293A, size: 0x8, addend: 0x0, symName: __ZNSt3__118__allocation_guardINS_9allocatorINS_20__shared_ptr_emplaceI5PointNS1_IS3_EEEEEEED1B8ne180100Ev, symObjAddr: 0xFB84, symBinAddr: 0x100013088, symSize: 0x2C }
  - { offset: 0x32964, size: 0x8, addend: 0x0, symName: __ZNSt3__118__allocation_guardINS_9allocatorINS_20__shared_ptr_emplaceI5PointNS1_IS3_EEEEEEEC2B8ne180100IS4_EET_m, symObjAddr: 0xFBB0, symBinAddr: 0x1000130B4, symSize: 0x50 }
  - { offset: 0x329B3, size: 0x8, addend: 0x0, symName: __ZNSt3__19allocatorINS_20__shared_ptr_emplaceI5PointNS0_IS2_EEEEEC1B8ne180100IS2_EERKNS0_IT_EE, symObjAddr: 0xFC00, symBinAddr: 0x100013104, symSize: 0x34 }
  - { offset: 0x329F0, size: 0x8, addend: 0x0, symName: __ZNSt3__116allocator_traitsINS_9allocatorINS_20__shared_ptr_emplaceI5PointNS1_IS3_EEEEEEE8allocateB8ne180100ERS6_m, symObjAddr: 0xFC34, symBinAddr: 0x100013138, symSize: 0x2C }
  - { offset: 0x32A23, size: 0x8, addend: 0x0, symName: __ZNSt3__19allocatorINS_20__shared_ptr_emplaceI5PointNS0_IS2_EEEEEC2B8ne180100IS2_EERKNS0_IT_EE, symObjAddr: 0xFC60, symBinAddr: 0x100013164, symSize: 0x30 }
  - { offset: 0x32A60, size: 0x8, addend: 0x0, symName: __ZNSt3__116__non_trivial_ifILb1ENS_9allocatorINS_20__shared_ptr_emplaceI5PointNS1_IS3_EEEEEEEC2B8ne180100Ev, symObjAddr: 0xFC90, symBinAddr: 0x100013194, symSize: 0x14 }
  - { offset: 0x32A8A, size: 0x8, addend: 0x0, symName: __ZNSt3__19allocatorINS_20__shared_ptr_emplaceI5PointNS0_IS2_EEEEE8allocateB8ne180100Em, symObjAddr: 0xFCA4, symBinAddr: 0x1000131A8, symSize: 0x5C }
  - { offset: 0x32AC9, size: 0x8, addend: 0x0, symName: __ZNSt3__116allocator_traitsINS_9allocatorINS_20__shared_ptr_emplaceI5PointNS1_IS3_EEEEEEE8max_sizeB8ne180100IS6_vEEmRKS6_, symObjAddr: 0xFD00, symBinAddr: 0x100013204, symSize: 0x24 }
  - { offset: 0x32AF7, size: 0x8, addend: 0x0, symName: __ZNKSt3__19allocatorINS_20__shared_ptr_emplaceI5PointNS0_IS2_EEEEE8max_sizeB8ne180100Ev, symObjAddr: 0xFD24, symBinAddr: 0x100013228, symSize: 0x20 }
  - { offset: 0x32B1D, size: 0x8, addend: 0x0, symName: __ZNSt3__120__shared_ptr_emplaceI5PointNS_9allocatorIS1_EEEC2B8ne180100IJR5Tvec2IiER5Tvec3IiEES3_Li0EEES3_DpOT_, symObjAddr: 0xFD44, symBinAddr: 0x100013248, symSize: 0xC4 }
  - { offset: 0x32BB4, size: 0x8, addend: 0x0, symName: __ZNSt3__120__shared_ptr_emplaceI5PointNS_9allocatorIS1_EEE8_StorageC1B8ne180100EOS3_, symObjAddr: 0xFE08, symBinAddr: 0x10001330C, symSize: 0x34 }
  - { offset: 0x32BED, size: 0x8, addend: 0x0, symName: __ZNSt3__120__shared_ptr_emplaceI5PointNS_9allocatorIS1_EEE11__get_allocB8ne180100Ev, symObjAddr: 0xFE3C, symBinAddr: 0x100013340, symSize: 0x28 }
  - { offset: 0x32C19, size: 0x8, addend: 0x0, symName: __ZNSt3__116allocator_traitsINS_9allocatorI5PointEEE9constructB8ne180100IS2_JR5Tvec2IiER5Tvec3IiEEvEEvRS3_PT_DpOT0_, symObjAddr: 0xFE64, symBinAddr: 0x100013368, symSize: 0x3C }
  - { offset: 0x32C84, size: 0x8, addend: 0x0, symName: __ZNSt3__120__shared_ptr_emplaceI5PointNS_9allocatorIS1_EEE8_StorageD1B8ne180100Ev, symObjAddr: 0xFEA0, symBinAddr: 0x1000133A4, symSize: 0x2C }
  - { offset: 0x32CAE, size: 0x8, addend: 0x0, symName: __ZNSt3__120__shared_ptr_emplaceI5PointNS_9allocatorIS1_EEED1Ev, symObjAddr: 0xFECC, symBinAddr: 0x1000133D0, symSize: 0x2C }
  - { offset: 0x32CDA, size: 0x8, addend: 0x0, symName: __ZNSt3__120__shared_ptr_emplaceI5PointNS_9allocatorIS1_EEED0Ev, symObjAddr: 0xFEF8, symBinAddr: 0x1000133FC, symSize: 0x30 }
  - { offset: 0x32D06, size: 0x8, addend: 0x0, symName: __ZNSt3__120__shared_ptr_emplaceI5PointNS_9allocatorIS1_EEE16__on_zero_sharedEv, symObjAddr: 0xFF28, symBinAddr: 0x10001342C, symSize: 0x24 }
  - { offset: 0x32D2C, size: 0x8, addend: 0x0, symName: __ZNSt3__120__shared_ptr_emplaceI5PointNS_9allocatorIS1_EEE21__on_zero_shared_weakEv, symObjAddr: 0xFF4C, symBinAddr: 0x100013450, symSize: 0x5C }
  - { offset: 0x32D6D, size: 0x8, addend: 0x0, symName: __ZNSt3__120__shared_ptr_emplaceI5PointNS_9allocatorIS1_EEE8_StorageC2B8ne180100EOS3_, symObjAddr: 0xFFA8, symBinAddr: 0x1000134AC, symSize: 0x30 }
  - { offset: 0x32DA6, size: 0x8, addend: 0x0, symName: __ZNSt3__120__shared_ptr_emplaceI5PointNS_9allocatorIS1_EEE8_Storage11__get_allocB8ne180100Ev, symObjAddr: 0xFFD8, symBinAddr: 0x1000134DC, symSize: 0x3C }
  - { offset: 0x32DF9, size: 0x8, addend: 0x0, symName: __ZNSt3__117__compressed_pairINS_9allocatorI5PointEES2_E16__get_first_baseB8ne180100EPS4_, symObjAddr: 0x10014, symBinAddr: 0x100013518, symSize: 0x14 }
  - { offset: 0x32E1C, size: 0x8, addend: 0x0, symName: __ZNSt3__19allocatorI5PointE9constructB8ne180100IS1_JR5Tvec2IiER5Tvec3IiEEEEvPT_DpOT0_, symObjAddr: 0x10028, symBinAddr: 0x10001352C, symSize: 0x60 }
  - { offset: 0x32E85, size: 0x8, addend: 0x0, symName: __ZN5PointC1E5Tvec2IiE5Tvec3IiE, symObjAddr: 0x10088, symBinAddr: 0x10001358C, symSize: 0x3C }
  - { offset: 0x32ECD, size: 0x8, addend: 0x0, symName: __ZN5PointC2E5Tvec2IiE5Tvec3IiE, symObjAddr: 0x100C4, symBinAddr: 0x1000135C8, symSize: 0x98 }
  - { offset: 0x32F15, size: 0x8, addend: 0x0, symName: __ZN5PointD1Ev, symObjAddr: 0x1015C, symBinAddr: 0x100013660, symSize: 0x2C }
  - { offset: 0x32F41, size: 0x8, addend: 0x0, symName: __ZN5PointD0Ev, symObjAddr: 0x10188, symBinAddr: 0x10001368C, symSize: 0x30 }
  - { offset: 0x32F6D, size: 0x8, addend: 0x0, symName: __ZNK5Point4drawER6Screen, symObjAddr: 0x101B8, symBinAddr: 0x1000136BC, symSize: 0x64 }
  - { offset: 0x32FA1, size: 0x8, addend: 0x0, symName: __ZNK5Point15printAttributesEv, symObjAddr: 0x1021C, symBinAddr: 0x100013720, symSize: 0x184 }
  - { offset: 0x32FC7, size: 0x8, addend: 0x0, symName: __ZNK5Point11writeToFileERNSt3__113basic_ostreamIcNS0_11char_traitsIcEEEE, symObjAddr: 0x103A0, symBinAddr: 0x1000138A4, symSize: 0x68 }
  - { offset: 0x32FFB, size: 0x8, addend: 0x0, symName: __ZN5Point6rotateEv, symObjAddr: 0x10408, symBinAddr: 0x10001390C, symSize: 0x10 }
  - { offset: 0x33021, size: 0x8, addend: 0x0, symName: __ZNK5Point13checkInBoundsEii, symObjAddr: 0x10418, symBinAddr: 0x10001391C, symSize: 0x1C }
  - { offset: 0x33063, size: 0x8, addend: 0x0, symName: __ZN5PointD2Ev, symObjAddr: 0x10434, symBinAddr: 0x100013938, symSize: 0x2C }
  - { offset: 0x3308F, size: 0x8, addend: 0x0, symName: __ZNSt3__120__shared_ptr_emplaceI5PointNS_9allocatorIS1_EEE8_StorageD2B8ne180100Ev, symObjAddr: 0x10460, symBinAddr: 0x100013964, symSize: 0x2C }
  - { offset: 0x330B9, size: 0x8, addend: 0x0, symName: __ZNSt3__120__shared_ptr_emplaceI5PointNS_9allocatorIS1_EEED2Ev, symObjAddr: 0x1048C, symBinAddr: 0x100013990, symSize: 0x48 }
  - { offset: 0x330E5, size: 0x8, addend: 0x0, symName: __ZNSt3__120__shared_ptr_emplaceI5PointNS_9allocatorIS1_EEE21__on_zero_shared_implB8ne180100IS3_Li0EEEvv, symObjAddr: 0x104D4, symBinAddr: 0x1000139D8, symSize: 0x44 }
  - { offset: 0x33135, size: 0x8, addend: 0x0, symName: __ZNSt3__116allocator_traitsINS_9allocatorI5PointEEE7destroyB8ne180100IS2_vEEvRS3_PT_, symObjAddr: 0x10518, symBinAddr: 0x100013A1C, symSize: 0x2C }
  - { offset: 0x33172, size: 0x8, addend: 0x0, symName: __ZNSt3__19allocatorI5PointE7destroyB8ne180100EPS1_, symObjAddr: 0x10544, symBinAddr: 0x100013A48, symSize: 0x30 }
  - { offset: 0x331A6, size: 0x8, addend: 0x0, symName: __ZNSt3__116allocator_traitsINS_9allocatorINS_20__shared_ptr_emplaceI5PointNS1_IS3_EEEEEEE10deallocateB8ne180100ERS6_PS5_m, symObjAddr: 0x10574, symBinAddr: 0x100013A78, symSize: 0x34 }
  - { offset: 0x331E8, size: 0x8, addend: 0x0, symName: __ZNSt3__114pointer_traitsIPNS_20__shared_ptr_emplaceI5PointNS_9allocatorIS2_EEEEE10pointer_toB8ne180100ERS5_, symObjAddr: 0x105A8, symBinAddr: 0x100013AAC, symSize: 0x14 }
  - { offset: 0x3320B, size: 0x8, addend: 0x0, symName: __ZNSt3__19allocatorINS_20__shared_ptr_emplaceI5PointNS0_IS2_EEEEE10deallocateB8ne180100EPS4_m, symObjAddr: 0x105BC, symBinAddr: 0x100013AC0, symSize: 0x44 }
  - { offset: 0x3324D, size: 0x8, addend: 0x0, symName: __ZNSt3__110shared_ptrI5PointEC1B8ne180100Ev, symObjAddr: 0x10600, symBinAddr: 0x100013B04, symSize: 0x2C }
  - { offset: 0x33277, size: 0x8, addend: 0x0, symName: __ZNSt3__110shared_ptrI5PointE18__enable_weak_thisB8ne180100Ez, symObjAddr: 0x1062C, symBinAddr: 0x100013B30, symSize: 0x10 }
  - { offset: 0x3329E, size: 0x8, addend: 0x0, symName: __ZNSt3__110shared_ptrI5PointEC2B8ne180100Ev, symObjAddr: 0x1063C, symBinAddr: 0x100013B40, symSize: 0x1C }
  - { offset: 0x332C8, size: 0x8, addend: 0x0, symName: __ZNSt3__120__shared_ptr_emplaceI5PointNS_9allocatorIS1_EEE8_Storage10__get_elemB8ne180100Ev, symObjAddr: 0x10658, symBinAddr: 0x100013B5C, symSize: 0x3C }
  - { offset: 0x3331B, size: 0x8, addend: 0x0, symName: __ZNSt3__117__compressed_pairINS_9allocatorI5PointEES2_E17__get_second_baseB8ne180100EPS4_, symObjAddr: 0x10694, symBinAddr: 0x100013B98, symSize: 0x14 }
  - { offset: 0x3333E, size: 0x8, addend: 0x0, symName: __ZNSt3__118__allocation_guardINS_9allocatorINS_20__shared_ptr_emplaceI5PointNS1_IS3_EEEEEEED2B8ne180100Ev, symObjAddr: 0x106A8, symBinAddr: 0x100013BAC, symSize: 0x2C }
  - { offset: 0x33368, size: 0x8, addend: 0x0, symName: __ZNSt3__118__allocation_guardINS_9allocatorINS_20__shared_ptr_emplaceI5PointNS1_IS3_EEEEEEE9__destroyB8ne180100Ev, symObjAddr: 0x106D4, symBinAddr: 0x100013BD8, symSize: 0x4C }
  - { offset: 0x3338E, size: 0x8, addend: 0x0, symName: __ZNSt3__19allocatorI5PointEC2B8ne180100Ev, symObjAddr: 0x10720, symBinAddr: 0x100013C24, symSize: 0x2C }
  - { offset: 0x333B8, size: 0x8, addend: 0x0, symName: __ZNSt3__116__non_trivial_ifILb1ENS_9allocatorI5PointEEEC2B8ne180100Ev, symObjAddr: 0x1074C, symBinAddr: 0x100013C50, symSize: 0x14 }
  - { offset: 0x333E2, size: 0x8, addend: 0x0, symName: __ZNSt3__110shared_ptrI7ElementEC2B8ne180100I5PointvEEONS0_IT_EE, symObjAddr: 0x10760, symBinAddr: 0x100013C64, symSize: 0x40 }
  - { offset: 0x33425, size: 0x8, addend: 0x0, symName: __ZNSt3__110shared_ptrI5PointED2B8ne180100Ev, symObjAddr: 0x107A0, symBinAddr: 0x100013CA4, symSize: 0x54 }
  - { offset: 0x3344F, size: 0x8, addend: 0x0, symName: __ZN6LayoutC2E5Tvec2IfES1_iibNSt3__112basic_stringIcNS2_11char_traitsIcEENS2_9allocatorIcEEEE, symObjAddr: 0x107F4, symBinAddr: 0x100013CF8, symSize: 0x114 }
  - { offset: 0x334D0, size: 0x8, addend: 0x0, symName: __ZNSt3__120__shared_ptr_emplaceI6LayoutNS_9allocatorIS1_EEEC1B8ne180100IJRS1_ES3_Li0EEES3_DpOT_, symObjAddr: 0x109A0, symBinAddr: 0x100013EA4, symSize: 0x34 }
  - { offset: 0x33532, size: 0x8, addend: 0x0, symName: __ZNSt3__120__shared_ptr_emplaceI6LayoutNS_9allocatorIS1_EEEC2B8ne180100IJRS1_ES3_Li0EEES3_DpOT_, symObjAddr: 0x109D4, symBinAddr: 0x100013ED8, symSize: 0xBC }
  - { offset: 0x335B5, size: 0x8, addend: 0x0, symName: __ZNSt3__116allocator_traitsINS_9allocatorI6LayoutEEE9constructB8ne180100IS2_JRS2_EvEEvRS3_PT_DpOT0_, symObjAddr: 0x10A90, symBinAddr: 0x100013F94, symSize: 0x34 }
  - { offset: 0x3360C, size: 0x8, addend: 0x0, symName: __ZNSt3__19allocatorI6LayoutE9constructB8ne180100IS1_JRS1_EEEvPT_DpOT0_, symObjAddr: 0x10AC4, symBinAddr: 0x100013FC8, symSize: 0x30 }
  - { offset: 0x33662, size: 0x8, addend: 0x0, symName: __ZN6LayoutC1ERKS_, symObjAddr: 0x10AF4, symBinAddr: 0x100013FF8, symSize: 0x34 }
  - { offset: 0x33697, size: 0x8, addend: 0x0, symName: __ZN6LayoutC2ERKS_, symObjAddr: 0x10B28, symBinAddr: 0x10001402C, symSize: 0x100 }
  - { offset: 0x336CC, size: 0x8, addend: 0x0, symName: __ZNSt3__16vectorINS_10shared_ptrI7ElementEENS_9allocatorIS3_EEEC1ERKS6_, symObjAddr: 0x10C28, symBinAddr: 0x10001412C, symSize: 0x34 }
  - { offset: 0x33707, size: 0x8, addend: 0x0, symName: __ZNSt3__16vectorINS_10shared_ptrI6LayoutEENS_9allocatorIS3_EEEC1ERKS6_, symObjAddr: 0x10C5C, symBinAddr: 0x100014160, symSize: 0x34 }
  - { offset: 0x33742, size: 0x8, addend: 0x0, symName: __ZNSt3__16vectorINS_10shared_ptrI7ElementEENS_9allocatorIS3_EEEC2ERKS6_, symObjAddr: 0x10C90, symBinAddr: 0x100014194, symSize: 0x94 }
  - { offset: 0x3377D, size: 0x8, addend: 0x0, symName: __ZNSt3__116allocator_traitsINS_9allocatorINS_10shared_ptrI7ElementEEEEE37select_on_container_copy_constructionB8ne180100IS5_vvEES5_RKS5_, symObjAddr: 0x10D24, symBinAddr: 0x100014228, symSize: 0x10 }
  - { offset: 0x337B2, size: 0x8, addend: 0x0, symName: __ZNSt3__117__compressed_pairIPNS_10shared_ptrI7ElementEENS_9allocatorIS3_EEEC1B8ne180100IDnS6_EEOT_OT0_, symObjAddr: 0x10D34, symBinAddr: 0x100014238, symSize: 0x3C }
  - { offset: 0x3380A, size: 0x8, addend: 0x0, symName: __ZNSt3__16vectorINS_10shared_ptrI7ElementEENS_9allocatorIS3_EEE16__init_with_sizeB8ne180100IPS3_S8_EEvT_T0_m, symObjAddr: 0x10D70, symBinAddr: 0x100014274, symSize: 0xB8 }
  - { offset: 0x3387E, size: 0x8, addend: 0x0, symName: __ZNSt3__117__compressed_pairIPNS_10shared_ptrI7ElementEENS_9allocatorIS3_EEEC2B8ne180100IDnS6_EEOT_OT0_, symObjAddr: 0x10E28, symBinAddr: 0x10001432C, symSize: 0x44 }
  - { offset: 0x338D6, size: 0x8, addend: 0x0, symName: __ZNSt3__122__compressed_pair_elemINS_9allocatorINS_10shared_ptrI7ElementEEEELi1ELb1EEC2B8ne180100IS5_vEEOT_, symObjAddr: 0x10E6C, symBinAddr: 0x100014370, symSize: 0x18 }
  - { offset: 0x33918, size: 0x8, addend: 0x0, symName: __ZNSt3__16vectorINS_10shared_ptrI7ElementEENS_9allocatorIS3_EEE11__vallocateB8ne180100Em, symObjAddr: 0x10EC4, symBinAddr: 0x1000143C8, symSize: 0xAC }
  - { offset: 0x3395C, size: 0x8, addend: 0x0, symName: __ZNSt3__16vectorINS_10shared_ptrI7ElementEENS_9allocatorIS3_EEE18__construct_at_endIPS3_S8_EEvT_T0_m, symObjAddr: 0x10F70, symBinAddr: 0x100014474, symSize: 0x8C }
  - { offset: 0x339D2, size: 0x8, addend: 0x0, symName: __ZNSt3__128__exception_guard_exceptionsINS_6vectorINS_10shared_ptrI7ElementEENS_9allocatorIS4_EEE16__destroy_vectorEE10__completeB8ne180100Ev, symObjAddr: 0x10FFC, symBinAddr: 0x100014500, symSize: 0x1C }
  - { offset: 0x339F8, size: 0x8, addend: 0x0, symName: __ZNSt3__128__exception_guard_exceptionsINS_6vectorINS_10shared_ptrI7ElementEENS_9allocatorIS4_EEE16__destroy_vectorEED1B8ne180100Ev, symObjAddr: 0x11018, symBinAddr: 0x10001451C, symSize: 0x2C }
  - { offset: 0x33A22, size: 0x8, addend: 0x0, symName: __ZNSt3__128__exception_guard_exceptionsINS_6vectorINS_10shared_ptrI7ElementEENS_9allocatorIS4_EEE16__destroy_vectorEEC1B8ne180100ES8_, symObjAddr: 0x11044, symBinAddr: 0x100014548, symSize: 0x34 }
  - { offset: 0x33A5A, size: 0x8, addend: 0x0, symName: __ZNSt3__128__exception_guard_exceptionsINS_6vectorINS_10shared_ptrI7ElementEENS_9allocatorIS4_EEE16__destroy_vectorEEC2B8ne180100ES8_, symObjAddr: 0x11078, symBinAddr: 0x10001457C, symSize: 0x24 }
  - { offset: 0x33AB5, size: 0x8, addend: 0x0, symName: __ZNSt3__14pairIPNS_10shared_ptrI7ElementEES4_EC1B8ne180100IS4_S4_Li0EEEOT_OT0_, symObjAddr: 0x11308, symBinAddr: 0x10001480C, symSize: 0x3C }
  - { offset: 0x33B13, size: 0x8, addend: 0x0, symName: __ZNSt3__14pairIPNS_10shared_ptrI7ElementEES4_EC2B8ne180100IS4_S4_Li0EEEOT_OT0_, symObjAddr: 0x11344, symBinAddr: 0x100014848, symSize: 0x34 }
  - { offset: 0x33B71, size: 0x8, addend: 0x0, symName: __ZNSt3__129_AllocatorDestroyRangeReverseINS_9allocatorINS_10shared_ptrI7ElementEEEEPS4_EC1B8ne180100ERS5_RS6_S9_, symObjAddr: 0x113C4, symBinAddr: 0x1000148C8, symSize: 0x44 }
  - { offset: 0x33BC8, size: 0x8, addend: 0x0, symName: __ZNSt3__116allocator_traitsINS_9allocatorINS_10shared_ptrI7ElementEEEEE9constructB8ne180100IS4_JRS4_EvEEvRS5_PT_DpOT0_, symObjAddr: 0x11408, symBinAddr: 0x10001490C, symSize: 0x34 }
  - { offset: 0x33C1F, size: 0x8, addend: 0x0, symName: __ZNSt3__128__exception_guard_exceptionsINS_29_AllocatorDestroyRangeReverseINS_9allocatorINS_10shared_ptrI7ElementEEEEPS5_EEE10__completeB8ne180100Ev, symObjAddr: 0x1143C, symBinAddr: 0x100014940, symSize: 0x1C }
  - { offset: 0x33C45, size: 0x8, addend: 0x0, symName: __ZNSt3__128__exception_guard_exceptionsINS_29_AllocatorDestroyRangeReverseINS_9allocatorINS_10shared_ptrI7ElementEEEEPS5_EEED1B8ne180100Ev, symObjAddr: 0x11458, symBinAddr: 0x10001495C, symSize: 0x2C }
  - { offset: 0x33C6F, size: 0x8, addend: 0x0, symName: __ZNSt3__128__exception_guard_exceptionsINS_29_AllocatorDestroyRangeReverseINS_9allocatorINS_10shared_ptrI7ElementEEEEPS5_EEEC1B8ne180100ES8_, symObjAddr: 0x11484, symBinAddr: 0x100014988, symSize: 0x34 }
  - { offset: 0x33CA8, size: 0x8, addend: 0x0, symName: __ZNSt3__128__exception_guard_exceptionsINS_29_AllocatorDestroyRangeReverseINS_9allocatorINS_10shared_ptrI7ElementEEEEPS5_EEEC2B8ne180100ES8_, symObjAddr: 0x114B8, symBinAddr: 0x1000149BC, symSize: 0x30 }
  - { offset: 0x33CE1, size: 0x8, addend: 0x0, symName: __ZNSt3__129_AllocatorDestroyRangeReverseINS_9allocatorINS_10shared_ptrI7ElementEEEEPS4_EC2B8ne180100ERS5_RS6_S9_, symObjAddr: 0x114E8, symBinAddr: 0x1000149EC, symSize: 0x38 }
  - { offset: 0x33D38, size: 0x8, addend: 0x0, symName: __ZNSt3__19allocatorINS_10shared_ptrI7ElementEEE9constructB8ne180100IS3_JRS3_EEEvPT_DpOT0_, symObjAddr: 0x11520, symBinAddr: 0x100014A24, symSize: 0x30 }
  - { offset: 0x33D8E, size: 0x8, addend: 0x0, symName: __ZNSt3__128__exception_guard_exceptionsINS_29_AllocatorDestroyRangeReverseINS_9allocatorINS_10shared_ptrI7ElementEEEEPS5_EEED2B8ne180100Ev, symObjAddr: 0x11550, symBinAddr: 0x100014A54, symSize: 0x50 }
  - { offset: 0x33DB8, size: 0x8, addend: 0x0, symName: __ZNKSt3__129_AllocatorDestroyRangeReverseINS_9allocatorINS_10shared_ptrI7ElementEEEEPS4_EclB8ne180100Ev, symObjAddr: 0x115A0, symBinAddr: 0x100014AA4, symSize: 0x68 }
  - { offset: 0x33DDE, size: 0x8, addend: 0x0, symName: __ZNSt3__118__unwrap_iter_implIPNS_10shared_ptrI7ElementEELb1EE8__unwrapB8ne180100ES4_, symObjAddr: 0x11678, symBinAddr: 0x100014B7C, symSize: 0x24 }
  - { offset: 0x33E01, size: 0x8, addend: 0x0, symName: __ZNSt3__118__unwrap_iter_implIPNS_10shared_ptrI7ElementEELb1EE8__rewrapB8ne180100ES4_S4_, symObjAddr: 0x1169C, symBinAddr: 0x100014BA0, symSize: 0x50 }
  - { offset: 0x33E32, size: 0x8, addend: 0x0, symName: __ZNSt3__128__exception_guard_exceptionsINS_6vectorINS_10shared_ptrI7ElementEENS_9allocatorIS4_EEE16__destroy_vectorEED2B8ne180100Ev, symObjAddr: 0x116EC, symBinAddr: 0x100014BF0, symSize: 0x48 }
  - { offset: 0x33E5C, size: 0x8, addend: 0x0, symName: __ZNSt3__16vectorINS_10shared_ptrI6LayoutEENS_9allocatorIS3_EEEC2ERKS6_, symObjAddr: 0x11734, symBinAddr: 0x100014C38, symSize: 0x94 }
  - { offset: 0x33E97, size: 0x8, addend: 0x0, symName: __ZNSt3__116allocator_traitsINS_9allocatorINS_10shared_ptrI6LayoutEEEEE37select_on_container_copy_constructionB8ne180100IS5_vvEES5_RKS5_, symObjAddr: 0x117C8, symBinAddr: 0x100014CCC, symSize: 0x10 }
  - { offset: 0x33EC6, size: 0x8, addend: 0x0, symName: __ZNKSt3__16vectorINS_10shared_ptrI6LayoutEENS_9allocatorIS3_EEE7__allocB8ne180100Ev, symObjAddr: 0x117D8, symBinAddr: 0x100014CDC, symSize: 0x28 }
  - { offset: 0x33EF2, size: 0x8, addend: 0x0, symName: __ZNSt3__117__compressed_pairIPNS_10shared_ptrI6LayoutEENS_9allocatorIS3_EEEC1B8ne180100IDnS6_EEOT_OT0_, symObjAddr: 0x11800, symBinAddr: 0x100014D04, symSize: 0x3C }
  - { offset: 0x33F4A, size: 0x8, addend: 0x0, symName: __ZNSt3__16vectorINS_10shared_ptrI6LayoutEENS_9allocatorIS3_EEE16__init_with_sizeB8ne180100IPS3_S8_EEvT_T0_m, symObjAddr: 0x1183C, symBinAddr: 0x100014D40, symSize: 0xB8 }
  - { offset: 0x33FBE, size: 0x8, addend: 0x0, symName: __ZNKSt3__16vectorINS_10shared_ptrI6LayoutEENS_9allocatorIS3_EEE4sizeB8ne180100Ev, symObjAddr: 0x118F4, symBinAddr: 0x100014DF8, symSize: 0x28 }
  - { offset: 0x33FE4, size: 0x8, addend: 0x0, symName: __ZNKSt3__117__compressed_pairIPNS_10shared_ptrI6LayoutEENS_9allocatorIS3_EEE6secondB8ne180100Ev, symObjAddr: 0x1191C, symBinAddr: 0x100014E20, symSize: 0x24 }
  - { offset: 0x3400A, size: 0x8, addend: 0x0, symName: __ZNKSt3__122__compressed_pair_elemINS_9allocatorINS_10shared_ptrI6LayoutEEEELi1ELb1EE5__getB8ne180100Ev, symObjAddr: 0x11940, symBinAddr: 0x100014E44, symSize: 0x14 }
  - { offset: 0x34030, size: 0x8, addend: 0x0, symName: __ZNSt3__117__compressed_pairIPNS_10shared_ptrI6LayoutEENS_9allocatorIS3_EEEC2B8ne180100IDnS6_EEOT_OT0_, symObjAddr: 0x11954, symBinAddr: 0x100014E58, symSize: 0x44 }
  - { offset: 0x34088, size: 0x8, addend: 0x0, symName: __ZNSt3__122__compressed_pair_elemINS_9allocatorINS_10shared_ptrI6LayoutEEEELi1ELb1EEC2B8ne180100IS5_vEEOT_, symObjAddr: 0x11998, symBinAddr: 0x100014E9C, symSize: 0x18 }
  - { offset: 0x340CA, size: 0x8, addend: 0x0, symName: __ZNSt3__16vectorINS_10shared_ptrI6LayoutEENS_9allocatorIS3_EEE11__vallocateB8ne180100Em, symObjAddr: 0x119F0, symBinAddr: 0x100014EF4, symSize: 0xAC }
  - { offset: 0x3410E, size: 0x8, addend: 0x0, symName: __ZNSt3__16vectorINS_10shared_ptrI6LayoutEENS_9allocatorIS3_EEE18__construct_at_endIPS3_S8_EEvT_T0_m, symObjAddr: 0x11A9C, symBinAddr: 0x100014FA0, symSize: 0x8C }
  - { offset: 0x34184, size: 0x8, addend: 0x0, symName: __ZNSt3__128__exception_guard_exceptionsINS_6vectorINS_10shared_ptrI6LayoutEENS_9allocatorIS4_EEE16__destroy_vectorEE10__completeB8ne180100Ev, symObjAddr: 0x11B28, symBinAddr: 0x10001502C, symSize: 0x1C }
  - { offset: 0x341AA, size: 0x8, addend: 0x0, symName: __ZNSt3__128__exception_guard_exceptionsINS_6vectorINS_10shared_ptrI6LayoutEENS_9allocatorIS4_EEE16__destroy_vectorEED1B8ne180100Ev, symObjAddr: 0x11B44, symBinAddr: 0x100015048, symSize: 0x2C }
  - { offset: 0x341D4, size: 0x8, addend: 0x0, symName: __ZNSt3__128__exception_guard_exceptionsINS_6vectorINS_10shared_ptrI6LayoutEENS_9allocatorIS4_EEE16__destroy_vectorEEC1B8ne180100ES8_, symObjAddr: 0x11B70, symBinAddr: 0x100015074, symSize: 0x34 }
  - { offset: 0x3420C, size: 0x8, addend: 0x0, symName: __ZNSt3__128__exception_guard_exceptionsINS_6vectorINS_10shared_ptrI6LayoutEENS_9allocatorIS4_EEE16__destroy_vectorEEC2B8ne180100ES8_, symObjAddr: 0x11BA4, symBinAddr: 0x1000150A8, symSize: 0x24 }
  - { offset: 0x34244, size: 0x8, addend: 0x0, symName: __ZNKSt3__16vectorINS_10shared_ptrI6LayoutEENS_9allocatorIS3_EEE8max_sizeEv, symObjAddr: 0x11BC8, symBinAddr: 0x1000150CC, symSize: 0x60 }
  - { offset: 0x3426C, size: 0x8, addend: 0x0, symName: __ZNKSt3__16vectorINS_10shared_ptrI6LayoutEENS_9allocatorIS3_EEE20__throw_length_errorB8ne180100Ev, symObjAddr: 0x11C28, symBinAddr: 0x10001512C, symSize: 0x1C }
  - { offset: 0x34292, size: 0x8, addend: 0x0, symName: __ZNSt3__16vectorINS_10shared_ptrI6LayoutEENS_9allocatorIS3_EEE9__end_capB8ne180100Ev, symObjAddr: 0x11C84, symBinAddr: 0x100015188, symSize: 0x28 }
  - { offset: 0x342B8, size: 0x8, addend: 0x0, symName: __ZNKSt3__16vectorINS_10shared_ptrI6LayoutEENS_9allocatorIS3_EEE14__annotate_newB8ne180100Em, symObjAddr: 0x11CAC, symBinAddr: 0x1000151B0, symSize: 0x14 }
  - { offset: 0x342ED, size: 0x8, addend: 0x0, symName: __ZNSt3__117__compressed_pairIPNS_10shared_ptrI6LayoutEENS_9allocatorIS3_EEE5firstB8ne180100Ev, symObjAddr: 0x11CC0, symBinAddr: 0x1000151C4, symSize: 0x24 }
  - { offset: 0x3432F, size: 0x8, addend: 0x0, symName: __ZNSt3__16vectorINS_10shared_ptrI6LayoutEENS_9allocatorIS3_EEE21_ConstructTransactionC1B8ne180100ERS6_m, symObjAddr: 0x11CE4, symBinAddr: 0x1000151E8, symSize: 0x3C }
  - { offset: 0x34377, size: 0x8, addend: 0x0, symName: __ZNSt3__16vectorINS_10shared_ptrI6LayoutEENS_9allocatorIS3_EEE21_ConstructTransactionD1B8ne180100Ev, symObjAddr: 0x11DA0, symBinAddr: 0x1000152A4, symSize: 0x2C }
  - { offset: 0x343A1, size: 0x8, addend: 0x0, symName: __ZNSt3__16vectorINS_10shared_ptrI6LayoutEENS_9allocatorIS3_EEE21_ConstructTransactionC2B8ne180100ERS6_m, symObjAddr: 0x11DCC, symBinAddr: 0x1000152D0, symSize: 0x44 }
  - { offset: 0x34406, size: 0x8, addend: 0x0, symName: __ZNSt3__14pairIPNS_10shared_ptrI6LayoutEES4_EC1B8ne180100IS4_S4_Li0EEEOT_OT0_, symObjAddr: 0x11FFC, symBinAddr: 0x100015500, symSize: 0x3C }
  - { offset: 0x34464, size: 0x8, addend: 0x0, symName: __ZNSt3__14pairIPNS_10shared_ptrI6LayoutEES4_EC2B8ne180100IS4_S4_Li0EEEOT_OT0_, symObjAddr: 0x12038, symBinAddr: 0x10001553C, symSize: 0x34 }
  - { offset: 0x344C2, size: 0x8, addend: 0x0, symName: __ZNSt3__129_AllocatorDestroyRangeReverseINS_9allocatorINS_10shared_ptrI6LayoutEEEEPS4_EC1B8ne180100ERS5_RS6_S9_, symObjAddr: 0x120B8, symBinAddr: 0x1000155BC, symSize: 0x44 }
  - { offset: 0x34519, size: 0x8, addend: 0x0, symName: __ZNSt3__116allocator_traitsINS_9allocatorINS_10shared_ptrI6LayoutEEEEE9constructB8ne180100IS4_JRS4_EvEEvRS5_PT_DpOT0_, symObjAddr: 0x120FC, symBinAddr: 0x100015600, symSize: 0x34 }
  - { offset: 0x34570, size: 0x8, addend: 0x0, symName: __ZNSt3__128__exception_guard_exceptionsINS_29_AllocatorDestroyRangeReverseINS_9allocatorINS_10shared_ptrI6LayoutEEEEPS5_EEE10__completeB8ne180100Ev, symObjAddr: 0x12130, symBinAddr: 0x100015634, symSize: 0x1C }
  - { offset: 0x34596, size: 0x8, addend: 0x0, symName: __ZNSt3__128__exception_guard_exceptionsINS_29_AllocatorDestroyRangeReverseINS_9allocatorINS_10shared_ptrI6LayoutEEEEPS5_EEED1B8ne180100Ev, symObjAddr: 0x1214C, symBinAddr: 0x100015650, symSize: 0x2C }
  - { offset: 0x345C0, size: 0x8, addend: 0x0, symName: __ZNSt3__128__exception_guard_exceptionsINS_29_AllocatorDestroyRangeReverseINS_9allocatorINS_10shared_ptrI6LayoutEEEEPS5_EEEC1B8ne180100ES8_, symObjAddr: 0x12178, symBinAddr: 0x10001567C, symSize: 0x34 }
  - { offset: 0x345F9, size: 0x8, addend: 0x0, symName: __ZNSt3__128__exception_guard_exceptionsINS_29_AllocatorDestroyRangeReverseINS_9allocatorINS_10shared_ptrI6LayoutEEEEPS5_EEEC2B8ne180100ES8_, symObjAddr: 0x121AC, symBinAddr: 0x1000156B0, symSize: 0x30 }
  - { offset: 0x34632, size: 0x8, addend: 0x0, symName: __ZNSt3__129_AllocatorDestroyRangeReverseINS_9allocatorINS_10shared_ptrI6LayoutEEEEPS4_EC2B8ne180100ERS5_RS6_S9_, symObjAddr: 0x121DC, symBinAddr: 0x1000156E0, symSize: 0x38 }
  - { offset: 0x34689, size: 0x8, addend: 0x0, symName: __ZNSt3__19allocatorINS_10shared_ptrI6LayoutEEE9constructB8ne180100IS3_JRS3_EEEvPT_DpOT0_, symObjAddr: 0x12214, symBinAddr: 0x100015718, symSize: 0x30 }
  - { offset: 0x346DF, size: 0x8, addend: 0x0, symName: __ZNSt3__128__exception_guard_exceptionsINS_29_AllocatorDestroyRangeReverseINS_9allocatorINS_10shared_ptrI6LayoutEEEEPS5_EEED2B8ne180100Ev, symObjAddr: 0x12244, symBinAddr: 0x100015748, symSize: 0x50 }
  - { offset: 0x34709, size: 0x8, addend: 0x0, symName: __ZNKSt3__129_AllocatorDestroyRangeReverseINS_9allocatorINS_10shared_ptrI6LayoutEEEEPS4_EclB8ne180100Ev, symObjAddr: 0x12294, symBinAddr: 0x100015798, symSize: 0x68 }
  - { offset: 0x3472F, size: 0x8, addend: 0x0, symName: __ZNSt3__116reverse_iteratorIPNS_10shared_ptrI6LayoutEEEC1B8ne180100ES4_, symObjAddr: 0x1236C, symBinAddr: 0x100015870, symSize: 0x34 }
  - { offset: 0x34767, size: 0x8, addend: 0x0, symName: __ZNSt3__116reverse_iteratorIPNS_10shared_ptrI6LayoutEEEppB8ne180100Ev, symObjAddr: 0x1240C, symBinAddr: 0x100015910, symSize: 0x20 }
  - { offset: 0x3478D, size: 0x8, addend: 0x0, symName: __ZNKSt3__116reverse_iteratorIPNS_10shared_ptrI6LayoutEEE4baseB8ne180100Ev, symObjAddr: 0x1242C, symBinAddr: 0x100015930, symSize: 0x18 }
  - { offset: 0x347B9, size: 0x8, addend: 0x0, symName: __ZNSt3__119__to_address_helperINS_16reverse_iteratorIPNS_10shared_ptrI6LayoutEEEEvE6__callB8ne180100ERKS6_, symObjAddr: 0x12444, symBinAddr: 0x100015948, symSize: 0x38 }
  - { offset: 0x347DC, size: 0x8, addend: 0x0, symName: __ZNKSt3__116reverse_iteratorIPNS_10shared_ptrI6LayoutEEEptB8ne180100Ev, symObjAddr: 0x1247C, symBinAddr: 0x100015980, symSize: 0x24 }
  - { offset: 0x34802, size: 0x8, addend: 0x0, symName: __ZNKSt3__116reverse_iteratorIPNS_10shared_ptrI6LayoutEEEdeB8ne180100Ev, symObjAddr: 0x124A0, symBinAddr: 0x1000159A4, symSize: 0x28 }
  - { offset: 0x34836, size: 0x8, addend: 0x0, symName: __ZNSt3__116reverse_iteratorIPNS_10shared_ptrI6LayoutEEEC2B8ne180100ES4_, symObjAddr: 0x124C8, symBinAddr: 0x1000159CC, symSize: 0x28 }
  - { offset: 0x3486E, size: 0x8, addend: 0x0, symName: __ZNSt3__118__unwrap_iter_implIPNS_10shared_ptrI6LayoutEELb1EE8__unwrapB8ne180100ES4_, symObjAddr: 0x124F0, symBinAddr: 0x1000159F4, symSize: 0x24 }
  - { offset: 0x34891, size: 0x8, addend: 0x0, symName: __ZNSt3__118__unwrap_iter_implIPNS_10shared_ptrI6LayoutEELb1EE8__rewrapB8ne180100ES4_S4_, symObjAddr: 0x12514, symBinAddr: 0x100015A18, symSize: 0x50 }
  - { offset: 0x348C2, size: 0x8, addend: 0x0, symName: __ZNSt3__16vectorINS_10shared_ptrI6LayoutEENS_9allocatorIS3_EEE21_ConstructTransactionD2B8ne180100Ev, symObjAddr: 0x12564, symBinAddr: 0x100015A68, symSize: 0x20 }
  - { offset: 0x348EC, size: 0x8, addend: 0x0, symName: __ZNSt3__128__exception_guard_exceptionsINS_6vectorINS_10shared_ptrI6LayoutEENS_9allocatorIS4_EEE16__destroy_vectorEED2B8ne180100Ev, symObjAddr: 0x12584, symBinAddr: 0x100015A88, symSize: 0x48 }
  - { offset: 0x34916, size: 0x8, addend: 0x0, symName: __ZNSt3__16vectorINS_10shared_ptrI6LayoutEENS_9allocatorIS3_EEE22__construct_one_at_endB8ne180100IJRKS3_EEEvDpOT_, symObjAddr: 0x125CC, symBinAddr: 0x100015AD0, symSize: 0x90 }
  - { offset: 0x34965, size: 0x8, addend: 0x0, symName: __ZNSt3__16vectorINS_10shared_ptrI6LayoutEENS_9allocatorIS3_EEE21__push_back_slow_pathIRKS3_EEPS3_OT_, symObjAddr: 0x1265C, symBinAddr: 0x100015B60, symSize: 0xE8 }
  - { offset: 0x349C3, size: 0x8, addend: 0x0, symName: __ZNKSt3__16vectorINS_10shared_ptrI6LayoutEENS_9allocatorIS3_EEE11__recommendB8ne180100Em, symObjAddr: 0x12744, symBinAddr: 0x100015C48, symSize: 0xB4 }
  - { offset: 0x34A18, size: 0x8, addend: 0x0, symName: __ZNSt3__114__split_bufferINS_10shared_ptrI6LayoutEERNS_9allocatorIS3_EEEC1EmmS6_, symObjAddr: 0x127F8, symBinAddr: 0x100015CFC, symSize: 0x44 }
  - { offset: 0x34A6E, size: 0x8, addend: 0x0, symName: __ZNSt3__114__split_bufferINS_10shared_ptrI6LayoutEERNS_9allocatorIS3_EEED1Ev, symObjAddr: 0x1294C, symBinAddr: 0x100015E50, symSize: 0x2C }
  - { offset: 0x34A9A, size: 0x8, addend: 0x0, symName: __ZNSt3__114__split_bufferINS_10shared_ptrI6LayoutEERNS_9allocatorIS3_EEEC2EmmS6_, symObjAddr: 0x12978, symBinAddr: 0x100015E7C, symSize: 0xD4 }
  - { offset: 0x34B0D, size: 0x8, addend: 0x0, symName: __ZNSt3__117__compressed_pairIPNS_10shared_ptrI6LayoutEERNS_9allocatorIS3_EEEC1B8ne180100IDnS7_EEOT_OT0_, symObjAddr: 0x12A4C, symBinAddr: 0x100015F50, symSize: 0x3C }
  - { offset: 0x34B65, size: 0x8, addend: 0x0, symName: __ZNSt3__114__split_bufferINS_10shared_ptrI6LayoutEERNS_9allocatorIS3_EEE7__allocB8ne180100Ev, symObjAddr: 0x12A88, symBinAddr: 0x100015F8C, symSize: 0x28 }
  - { offset: 0x34B8B, size: 0x8, addend: 0x0, symName: __ZNSt3__114__split_bufferINS_10shared_ptrI6LayoutEERNS_9allocatorIS3_EEE9__end_capB8ne180100Ev, symObjAddr: 0x12AB0, symBinAddr: 0x100015FB4, symSize: 0x28 }
  - { offset: 0x34BB1, size: 0x8, addend: 0x0, symName: __ZNSt3__117__compressed_pairIPNS_10shared_ptrI6LayoutEERNS_9allocatorIS3_EEEC2B8ne180100IDnS7_EEOT_OT0_, symObjAddr: 0x12AD8, symBinAddr: 0x100015FDC, symSize: 0x48 }
  - { offset: 0x34C09, size: 0x8, addend: 0x0, symName: __ZNSt3__122__compressed_pair_elemIRNS_9allocatorINS_10shared_ptrI6LayoutEEEELi1ELb0EEC2B8ne180100IS6_vEEOT_, symObjAddr: 0x12B20, symBinAddr: 0x100016024, symSize: 0x20 }
  - { offset: 0x34C4B, size: 0x8, addend: 0x0, symName: __ZNSt3__117__compressed_pairIPNS_10shared_ptrI6LayoutEERNS_9allocatorIS3_EEE6secondB8ne180100Ev, symObjAddr: 0x12B40, symBinAddr: 0x100016044, symSize: 0x28 }
  - { offset: 0x34C71, size: 0x8, addend: 0x0, symName: __ZNSt3__122__compressed_pair_elemIRNS_9allocatorINS_10shared_ptrI6LayoutEEEELi1ELb0EE5__getB8ne180100Ev, symObjAddr: 0x12B68, symBinAddr: 0x10001606C, symSize: 0x18 }
  - { offset: 0x34C97, size: 0x8, addend: 0x0, symName: __ZNSt3__117__compressed_pairIPNS_10shared_ptrI6LayoutEERNS_9allocatorIS3_EEE5firstB8ne180100Ev, symObjAddr: 0x12B80, symBinAddr: 0x100016084, symSize: 0x24 }
  - { offset: 0x34CBD, size: 0x8, addend: 0x0, symName: __ZNSt3__129_AllocatorDestroyRangeReverseINS_9allocatorINS_10shared_ptrI6LayoutEEEENS_16reverse_iteratorIPS4_EEEC1B8ne180100ERS5_RS8_SB_, symObjAddr: 0x12D48, symBinAddr: 0x10001624C, symSize: 0x44 }
  - { offset: 0x34D14, size: 0x8, addend: 0x0, symName: __ZNSt3__116allocator_traitsINS_9allocatorINS_10shared_ptrI6LayoutEEEEE9constructB8ne180100IS4_JS4_EvEEvRS5_PT_DpOT0_, symObjAddr: 0x12D8C, symBinAddr: 0x100016290, symSize: 0x34 }
  - { offset: 0x34D6B, size: 0x8, addend: 0x0, symName: __ZNSt3__128__exception_guard_exceptionsINS_29_AllocatorDestroyRangeReverseINS_9allocatorINS_10shared_ptrI6LayoutEEEENS_16reverse_iteratorIPS5_EEEEE10__completeB8ne180100Ev, symObjAddr: 0x12DC0, symBinAddr: 0x1000162C4, symSize: 0x1C }
  - { offset: 0x34D91, size: 0x8, addend: 0x0, symName: __ZNSt3__128__exception_guard_exceptionsINS_29_AllocatorDestroyRangeReverseINS_9allocatorINS_10shared_ptrI6LayoutEEEENS_16reverse_iteratorIPS5_EEEEED1B8ne180100Ev, symObjAddr: 0x12DDC, symBinAddr: 0x1000162E0, symSize: 0x2C }
  - { offset: 0x34DBB, size: 0x8, addend: 0x0, symName: __ZNSt3__128__exception_guard_exceptionsINS_29_AllocatorDestroyRangeReverseINS_9allocatorINS_10shared_ptrI6LayoutEEEENS_16reverse_iteratorIPS5_EEEEEC1B8ne180100ESA_, symObjAddr: 0x12E08, symBinAddr: 0x10001630C, symSize: 0x34 }
  - { offset: 0x34DF4, size: 0x8, addend: 0x0, symName: __ZNSt3__128__exception_guard_exceptionsINS_29_AllocatorDestroyRangeReverseINS_9allocatorINS_10shared_ptrI6LayoutEEEENS_16reverse_iteratorIPS5_EEEEEC2B8ne180100ESA_, symObjAddr: 0x12E3C, symBinAddr: 0x100016340, symSize: 0x30 }
  - { offset: 0x34E2D, size: 0x8, addend: 0x0, symName: __ZNSt3__129_AllocatorDestroyRangeReverseINS_9allocatorINS_10shared_ptrI6LayoutEEEENS_16reverse_iteratorIPS4_EEEC2B8ne180100ERS5_RS8_SB_, symObjAddr: 0x12E6C, symBinAddr: 0x100016370, symSize: 0x38 }
  - { offset: 0x34E84, size: 0x8, addend: 0x0, symName: __ZNSt3__19allocatorINS_10shared_ptrI6LayoutEEE9constructB8ne180100IS3_JS3_EEEvPT_DpOT0_, symObjAddr: 0x12EA4, symBinAddr: 0x1000163A8, symSize: 0x30 }
  - { offset: 0x34EDA, size: 0x8, addend: 0x0, symName: __ZNSt3__110shared_ptrI6LayoutEC1B8ne180100EOS2_, symObjAddr: 0x12ED4, symBinAddr: 0x1000163D8, symSize: 0x34 }
  - { offset: 0x34F13, size: 0x8, addend: 0x0, symName: __ZNSt3__110shared_ptrI6LayoutEC2B8ne180100EOS2_, symObjAddr: 0x12F08, symBinAddr: 0x10001640C, symSize: 0x40 }
  - { offset: 0x34F4C, size: 0x8, addend: 0x0, symName: __ZNSt3__128__exception_guard_exceptionsINS_29_AllocatorDestroyRangeReverseINS_9allocatorINS_10shared_ptrI6LayoutEEEENS_16reverse_iteratorIPS5_EEEEED2B8ne180100Ev, symObjAddr: 0x12F48, symBinAddr: 0x10001644C, symSize: 0x50 }
  - { offset: 0x34F76, size: 0x8, addend: 0x0, symName: __ZNKSt3__129_AllocatorDestroyRangeReverseINS_9allocatorINS_10shared_ptrI6LayoutEEEENS_16reverse_iteratorIPS4_EEEclB8ne180100Ev, symObjAddr: 0x12F98, symBinAddr: 0x10001649C, symSize: 0xB4 }
  - { offset: 0x34F9D, size: 0x8, addend: 0x0, symName: __ZNSt3__116reverse_iteratorINS0_IPNS_10shared_ptrI6LayoutEEEEEC1B8ne180100ES5_, symObjAddr: 0x130BC, symBinAddr: 0x1000165C0, symSize: 0x3C }
  - { offset: 0x34FD5, size: 0x8, addend: 0x0, symName: __ZNSt3__116reverse_iteratorINS0_IPNS_10shared_ptrI6LayoutEEEEEppB8ne180100Ev, symObjAddr: 0x1317C, symBinAddr: 0x100016680, symSize: 0x30 }
  - { offset: 0x34FFB, size: 0x8, addend: 0x0, symName: __ZNKSt3__116reverse_iteratorINS0_IPNS_10shared_ptrI6LayoutEEEEE4baseB8ne180100Ev, symObjAddr: 0x131AC, symBinAddr: 0x1000166B0, symSize: 0x24 }
  - { offset: 0x35027, size: 0x8, addend: 0x0, symName: __ZNSt3__119__to_address_helperINS_16reverse_iteratorINS1_IPNS_10shared_ptrI6LayoutEEEEEEvE6__callB8ne180100ERKS7_, symObjAddr: 0x131D0, symBinAddr: 0x1000166D4, symSize: 0x38 }
  - { offset: 0x3504A, size: 0x8, addend: 0x0, symName: __ZNKSt3__116reverse_iteratorINS0_IPNS_10shared_ptrI6LayoutEEEEEptB8ne180100Ev, symObjAddr: 0x13208, symBinAddr: 0x10001670C, symSize: 0x24 }
  - { offset: 0x35070, size: 0x8, addend: 0x0, symName: __ZNKSt3__116reverse_iteratorINS0_IPNS_10shared_ptrI6LayoutEEEEEdeB8ne180100Ev, symObjAddr: 0x1322C, symBinAddr: 0x100016730, symSize: 0x34 }
  - { offset: 0x350A4, size: 0x8, addend: 0x0, symName: __ZNSt3__116reverse_iteratorIPNS_10shared_ptrI6LayoutEEEmmB8ne180100Ev, symObjAddr: 0x13260, symBinAddr: 0x100016764, symSize: 0x20 }
  - { offset: 0x350CA, size: 0x8, addend: 0x0, symName: __ZNSt3__116reverse_iteratorINS0_IPNS_10shared_ptrI6LayoutEEEEEC2B8ne180100ES5_, symObjAddr: 0x13280, symBinAddr: 0x100016784, symSize: 0x2C }
  - { offset: 0x35102, size: 0x8, addend: 0x0, symName: __ZNSt3__114__split_bufferINS_10shared_ptrI6LayoutEERNS_9allocatorIS3_EEED2Ev, symObjAddr: 0x132AC, symBinAddr: 0x1000167B0, symSize: 0x8C }
  - { offset: 0x3512E, size: 0x8, addend: 0x0, symName: __ZNSt3__114__split_bufferINS_10shared_ptrI6LayoutEERNS_9allocatorIS3_EEE5clearB8ne180100Ev, symObjAddr: 0x13338, symBinAddr: 0x10001683C, symSize: 0x28 }
  - { offset: 0x35154, size: 0x8, addend: 0x0, symName: __ZNKSt3__114__split_bufferINS_10shared_ptrI6LayoutEERNS_9allocatorIS3_EEE8capacityB8ne180100Ev, symObjAddr: 0x13360, symBinAddr: 0x100016864, symSize: 0x40 }
  - { offset: 0x3517A, size: 0x8, addend: 0x0, symName: __ZNSt3__114__split_bufferINS_10shared_ptrI6LayoutEERNS_9allocatorIS3_EEE17__destruct_at_endB8ne180100EPS3_, symObjAddr: 0x133A0, symBinAddr: 0x1000168A4, symSize: 0x2C }
  - { offset: 0x351AE, size: 0x8, addend: 0x0, symName: __ZNSt3__114__split_bufferINS_10shared_ptrI6LayoutEERNS_9allocatorIS3_EEE17__destruct_at_endB8ne180100EPS3_NS_17integral_constantIbLb0EEE, symObjAddr: 0x133CC, symBinAddr: 0x1000168D0, symSize: 0x80 }
  - { offset: 0x351EE, size: 0x8, addend: 0x0, symName: __ZNKSt3__114__split_bufferINS_10shared_ptrI6LayoutEERNS_9allocatorIS3_EEE9__end_capB8ne180100Ev, symObjAddr: 0x1344C, symBinAddr: 0x100016950, symSize: 0x28 }
  - { offset: 0x35214, size: 0x8, addend: 0x0, symName: __ZNKSt3__117__compressed_pairIPNS_10shared_ptrI6LayoutEERNS_9allocatorIS3_EEE5firstB8ne180100Ev, symObjAddr: 0x13474, symBinAddr: 0x100016978, symSize: 0x24 }
  - { offset: 0x3523A, size: 0x8, addend: 0x0, symName: __ZNKSt3__15dequeINS_10shared_ptrI6LayoutEENS_9allocatorIS3_EEE5emptyB8ne180100Ev, symObjAddr: 0x13498, symBinAddr: 0x10001699C, symSize: 0x30 }
  - { offset: 0x35260, size: 0x8, addend: 0x0, symName: __ZNSt3__15dequeINS_10shared_ptrI6LayoutEENS_9allocatorIS3_EEE8pop_backEv, symObjAddr: 0x134C8, symBinAddr: 0x1000169CC, symSize: 0xE0 }
  - { offset: 0x352C4, size: 0x8, addend: 0x0, symName: __ZNKSt3__15dequeINS_10shared_ptrI6LayoutEENS_9allocatorIS3_EEE22__annotate_shrink_backB8ne180100Emm, symObjAddr: 0x135A8, symBinAddr: 0x100016AAC, symSize: 0x18 }
  - { offset: 0x35308, size: 0x8, addend: 0x0, symName: __ZNSt3__15dequeINS_10shared_ptrI6LayoutEENS_9allocatorIS3_EEE25__maybe_remove_back_spareB8ne180100Eb, symObjAddr: 0x135C0, symBinAddr: 0x100016AC4, symSize: 0xE8 }
  - { offset: 0x3533D, size: 0x8, addend: 0x0, symName: __ZNKSt3__15dequeINS_10shared_ptrI6LayoutEENS_9allocatorIS3_EEE19__back_spare_blocksB8ne180100Ev, symObjAddr: 0x136A8, symBinAddr: 0x100016BAC, symSize: 0x2C }
  - { offset: 0x35363, size: 0x8, addend: 0x0, symName: __ZNSt3__114__split_bufferIPNS_10shared_ptrI6LayoutEENS_9allocatorIS4_EEE4backB8ne180100Ev, symObjAddr: 0x136D4, symBinAddr: 0x100016BD8, symSize: 0x1C }
  - { offset: 0x35389, size: 0x8, addend: 0x0, symName: __ZNSt3__114__split_bufferIPNS_10shared_ptrI6LayoutEENS_9allocatorIS4_EEE8pop_backB8ne180100Ev, symObjAddr: 0x136F0, symBinAddr: 0x100016BF4, symSize: 0x2C }
  - { offset: 0x353AF, size: 0x8, addend: 0x0, symName: __ZNSt3__114__split_bufferIPNS_10shared_ptrI6LayoutEENS_9allocatorIS4_EEE17__destruct_at_endB8ne180100EPS4_, symObjAddr: 0x1371C, symBinAddr: 0x100016C20, symSize: 0x2C }
  - { offset: 0x353E3, size: 0x8, addend: 0x0, symName: __ZNSt3__114__split_bufferIPNS_10shared_ptrI6LayoutEENS_9allocatorIS4_EEE17__destruct_at_endB8ne180100EPS4_NS_17integral_constantIbLb0EEE, symObjAddr: 0x13748, symBinAddr: 0x100016C4C, symSize: 0x80 }
  - { offset: 0x35423, size: 0x8, addend: 0x0, symName: __ZNSt3__15stackINS_10shared_ptrI6LayoutEENS_5dequeIS3_NS_9allocatorIS3_EEEEED2Ev, symObjAddr: 0x137C8, symBinAddr: 0x100016CCC, symSize: 0x2C }
  - { offset: 0x3544F, size: 0x8, addend: 0x0, symName: __ZNSt3__15dequeINS_10shared_ptrI6LayoutEENS_9allocatorIS3_EEED1B8ne180100Ev, symObjAddr: 0x137F4, symBinAddr: 0x100016CF8, symSize: 0x2C }
  - { offset: 0x35479, size: 0x8, addend: 0x0, symName: __ZNSt3__15dequeINS_10shared_ptrI6LayoutEENS_9allocatorIS3_EEED2B8ne180100Ev, symObjAddr: 0x13820, symBinAddr: 0x100016D24, symSize: 0xA4 }
  - { offset: 0x354CF, size: 0x8, addend: 0x0, symName: __ZNSt3__15dequeINS_10shared_ptrI6LayoutEENS_9allocatorIS3_EEE5clearEv, symObjAddr: 0x138C4, symBinAddr: 0x100016DC8, symSize: 0x170 }
  - { offset: 0x3552A, size: 0x8, addend: 0x0, symName: __ZNKSt3__15dequeINS_10shared_ptrI6LayoutEENS_9allocatorIS3_EEE17__annotate_deleteB8ne180100Ev, symObjAddr: 0x13A34, symBinAddr: 0x100016F38, symSize: 0x10 }
  - { offset: 0x35550, size: 0x8, addend: 0x0, symName: __ZNSt3__114__split_bufferIPNS_10shared_ptrI6LayoutEENS_9allocatorIS4_EEED1Ev, symObjAddr: 0x13A44, symBinAddr: 0x100016F48, symSize: 0x2C }
  - { offset: 0x3557C, size: 0x8, addend: 0x0, symName: __ZNSt3__15dequeINS_10shared_ptrI6LayoutEENS_9allocatorIS3_EEE5beginB8ne180100Ev, symObjAddr: 0x13A70, symBinAddr: 0x100016F74, symSize: 0xA8 }
  - { offset: 0x355B1, size: 0x8, addend: 0x0, symName: __ZNSt3__116__deque_iteratorINS_10shared_ptrI6LayoutEEPS3_RS3_PS4_lLl256EEppB8ne180100Ev, symObjAddr: 0x13B4C, symBinAddr: 0x100017050, symSize: 0x70 }
  - { offset: 0x355D7, size: 0x8, addend: 0x0, symName: __ZNSt3__114__split_bufferIPNS_10shared_ptrI6LayoutEENS_9allocatorIS4_EEED2Ev, symObjAddr: 0x13BEC, symBinAddr: 0x1000170F0, symSize: 0x80 }
  - { offset: 0x35603, size: 0x8, addend: 0x0, symName: __ZNSt3__114__split_bufferIPNS_10shared_ptrI6LayoutEENS_9allocatorIS4_EEE5clearB8ne180100Ev, symObjAddr: 0x13C6C, symBinAddr: 0x100017170, symSize: 0x28 }
  - { offset: 0x35629, size: 0x8, addend: 0x0, symName: __ZN6Layout4drawER6Screenii, symObjAddr: 0x13C94, symBinAddr: 0x100017198, symSize: 0x12C }
  - { offset: 0x3571B, size: 0x8, addend: 0x0, symName: __ZNSt3__16vectorINS_10shared_ptrI7ElementEENS_9allocatorIS3_EEE5beginB8ne180100Ev, symObjAddr: 0x13DC0, symBinAddr: 0x1000172C4, symSize: 0x30 }
  - { offset: 0x35743, size: 0x8, addend: 0x0, symName: __ZNSt3__16vectorINS_10shared_ptrI7ElementEENS_9allocatorIS3_EEE3endB8ne180100Ev, symObjAddr: 0x13DF0, symBinAddr: 0x1000172F4, symSize: 0x30 }
  - { offset: 0x3576B, size: 0x8, addend: 0x0, symName: __ZNKSt3__111__wrap_iterIPNS_10shared_ptrI7ElementEEEdeB8ne180100Ev, symObjAddr: 0x13E54, symBinAddr: 0x100017358, symSize: 0x18 }
  - { offset: 0x35791, size: 0x8, addend: 0x0, symName: __ZNKSt3__110shared_ptrI7ElementEptB8ne180100Ev, symObjAddr: 0x13E6C, symBinAddr: 0x100017370, symSize: 0x18 }
  - { offset: 0x357B7, size: 0x8, addend: 0x0, symName: __ZNSt3__111__wrap_iterIPNS_10shared_ptrI7ElementEEEppB8ne180100Ev, symObjAddr: 0x13E84, symBinAddr: 0x100017388, symSize: 0x20 }
  - { offset: 0x357DD, size: 0x8, addend: 0x0, symName: __ZNSt3__16vectorINS_10shared_ptrI6LayoutEENS_9allocatorIS3_EEE5beginB8ne180100Ev, symObjAddr: 0x13EA4, symBinAddr: 0x1000173A8, symSize: 0x30 }
  - { offset: 0x35805, size: 0x8, addend: 0x0, symName: __ZNSt3__16vectorINS_10shared_ptrI6LayoutEENS_9allocatorIS3_EEE3endB8ne180100Ev, symObjAddr: 0x13ED4, symBinAddr: 0x1000173D8, symSize: 0x30 }
  - { offset: 0x3582D, size: 0x8, addend: 0x0, symName: __ZNKSt3__111__wrap_iterIPNS_10shared_ptrI6LayoutEEEdeB8ne180100Ev, symObjAddr: 0x13F38, symBinAddr: 0x10001743C, symSize: 0x18 }
  - { offset: 0x35853, size: 0x8, addend: 0x0, symName: __ZNSt3__111__wrap_iterIPNS_10shared_ptrI6LayoutEEEppB8ne180100Ev, symObjAddr: 0x13F50, symBinAddr: 0x100017454, symSize: 0x20 }
  - { offset: 0x35879, size: 0x8, addend: 0x0, symName: __ZNSt3__16vectorINS_10shared_ptrI7ElementEENS_9allocatorIS3_EEE11__make_iterB8ne180100EPS3_, symObjAddr: 0x13F70, symBinAddr: 0x100017474, symSize: 0x30 }
  - { offset: 0x358AE, size: 0x8, addend: 0x0, symName: __ZNSt3__111__wrap_iterIPNS_10shared_ptrI7ElementEEEC1B8ne180100ES4_, symObjAddr: 0x13FA0, symBinAddr: 0x1000174A4, symSize: 0x34 }
  - { offset: 0x358E6, size: 0x8, addend: 0x0, symName: __ZNSt3__111__wrap_iterIPNS_10shared_ptrI7ElementEEEC2B8ne180100ES4_, symObjAddr: 0x13FD4, symBinAddr: 0x1000174D8, symSize: 0x20 }
  - { offset: 0x3591E, size: 0x8, addend: 0x0, symName: __ZNKSt3__111__wrap_iterIPNS_10shared_ptrI7ElementEEE4baseB8ne180100Ev, symObjAddr: 0x1403C, symBinAddr: 0x100017540, symSize: 0x18 }
  - { offset: 0x35944, size: 0x8, addend: 0x0, symName: __ZNSt3__16vectorINS_10shared_ptrI6LayoutEENS_9allocatorIS3_EEE11__make_iterB8ne180100EPS3_, symObjAddr: 0x14054, symBinAddr: 0x100017558, symSize: 0x30 }
  - { offset: 0x35979, size: 0x8, addend: 0x0, symName: __ZNSt3__111__wrap_iterIPNS_10shared_ptrI6LayoutEEEC1B8ne180100ES4_, symObjAddr: 0x14084, symBinAddr: 0x100017588, symSize: 0x34 }
  - { offset: 0x359B1, size: 0x8, addend: 0x0, symName: __ZNSt3__111__wrap_iterIPNS_10shared_ptrI6LayoutEEEC2B8ne180100ES4_, symObjAddr: 0x140B8, symBinAddr: 0x1000175BC, symSize: 0x20 }
  - { offset: 0x359E9, size: 0x8, addend: 0x0, symName: __ZNKSt3__111__wrap_iterIPNS_10shared_ptrI6LayoutEEE4baseB8ne180100Ev, symObjAddr: 0x14120, symBinAddr: 0x100017624, symSize: 0x18 }
  - { offset: 0x35A0F, size: 0x8, addend: 0x0, symName: __ZN6Layout11writeToFileERNSt3__113basic_ostreamIcNS0_11char_traitsIcEEEE, symObjAddr: 0x14138, symBinAddr: 0x10001763C, symSize: 0x120 }
  - { offset: 0x35AE5, size: 0x8, addend: 0x0, symName: __ZNSt3__114basic_ofstreamIcNS_11char_traitsIcEEE5closeEv, symObjAddr: 0x14258, symBinAddr: 0x10001775C, symSize: 0x58 }
  - { offset: 0x35B0D, size: 0x8, addend: 0x0, symName: __ZNSt3__110shared_ptrI6LayoutEC2B8ne180100Ev, symObjAddr: 0x142B0, symBinAddr: 0x1000177B4, symSize: 0x1C }
  - { offset: 0x35B37, size: 0x8, addend: 0x0, symName: __ZN6Layout10findLayoutENSt3__112basic_stringIcNS0_11char_traitsIcEENS0_9allocatorIcEEEENS0_10shared_ptrIS_EE, symObjAddr: 0x142CC, symBinAddr: 0x1000177D0, symSize: 0x1C4 }
  - { offset: 0x35BD1, size: 0x8, addend: 0x0, symName: __ZNSt3__110shared_ptrI6LayoutEC1B8ne180100EDn, symObjAddr: 0x14604, symBinAddr: 0x100017B08, symSize: 0x34 }
  - { offset: 0x35C06, size: 0x8, addend: 0x0, symName: __ZNKSt3__112basic_stringIcNS_11char_traitsIcEENS_9allocatorIcEEE4dataB8ne180100Ev, symObjAddr: 0x14638, symBinAddr: 0x100017B3C, symSize: 0x28 }
  - { offset: 0x35C2C, size: 0x8, addend: 0x0, symName: __ZNSt3__111char_traitsIcE7compareB8ne180100EPKcS3_m, symObjAddr: 0x14660, symBinAddr: 0x100017B64, symSize: 0x34 }
  - { offset: 0x35C6B, size: 0x8, addend: 0x0, symName: __ZNKSt3__112basic_stringIcNS_11char_traitsIcEENS_9allocatorIcEEE13__get_pointerB8ne180100Ev, symObjAddr: 0x146A8, symBinAddr: 0x100017BAC, symSize: 0x54 }
  - { offset: 0x35C91, size: 0x8, addend: 0x0, symName: __ZNKSt3__112basic_stringIcNS_11char_traitsIcEENS_9allocatorIcEEE18__get_long_pointerB8ne180100Ev, symObjAddr: 0x146FC, symBinAddr: 0x100017C00, symSize: 0x28 }
  - { offset: 0x35CB7, size: 0x8, addend: 0x0, symName: __ZNKSt3__112basic_stringIcNS_11char_traitsIcEENS_9allocatorIcEEE19__get_short_pointerB8ne180100Ev, symObjAddr: 0x14724, symBinAddr: 0x100017C28, symSize: 0x28 }
  - { offset: 0x35CDD, size: 0x8, addend: 0x0, symName: __ZNSt3__114pointer_traitsIPKcE10pointer_toB8ne180100ERS1_, symObjAddr: 0x1474C, symBinAddr: 0x100017C50, symSize: 0x14 }
  - { offset: 0x35D00, size: 0x8, addend: 0x0, symName: __ZNKSt3__110shared_ptrI6LayoutEcvbB8ne180100Ev, symObjAddr: 0x14760, symBinAddr: 0x100017C64, symSize: 0x30 }
  - { offset: 0x35D26, size: 0x8, addend: 0x0, symName: __ZNKSt3__110shared_ptrI6LayoutE3getB8ne180100Ev, symObjAddr: 0x14790, symBinAddr: 0x100017C94, symSize: 0x18 }
  - { offset: 0x35D4C, size: 0x8, addend: 0x0, symName: __ZNSt3__110shared_ptrI6LayoutEC2B8ne180100EDn, symObjAddr: 0x147A8, symBinAddr: 0x100017CAC, symSize: 0x20 }
  - { offset: 0x35DAA, size: 0x8, addend: 0x0, symName: __ZNSt3__110shared_ptrI7ElementEC1B8ne180100I8TrianglevEEONS0_IT_EE, symObjAddr: 0x14820, symBinAddr: 0x100017D24, symSize: 0x34 }
  - { offset: 0x35DED, size: 0x8, addend: 0x0, symName: __ZNSt3__110shared_ptrI8TriangleED1B8ne180100Ev, symObjAddr: 0x14854, symBinAddr: 0x100017D58, symSize: 0x2C }
  - { offset: 0x35E17, size: 0x8, addend: 0x0, symName: __ZNSt3__19allocatorI8TriangleEC1B8ne180100Ev, symObjAddr: 0x14930, symBinAddr: 0x100017E34, symSize: 0x2C }
  - { offset: 0x35E98, size: 0x8, addend: 0x0, symName: __ZNSt3__118__allocation_guardINS_9allocatorINS_20__shared_ptr_emplaceI8TriangleNS1_IS3_EEEEEEEC1B8ne180100IS4_EET_m, symObjAddr: 0x1495C, symBinAddr: 0x100017E60, symSize: 0x34 }
  - { offset: 0x35EE7, size: 0x8, addend: 0x0, symName: __ZNKSt3__118__allocation_guardINS_9allocatorINS_20__shared_ptr_emplaceI8TriangleNS1_IS3_EEEEEEE5__getB8ne180100Ev, symObjAddr: 0x14990, symBinAddr: 0x100017E94, symSize: 0x18 }
  - { offset: 0x35F0D, size: 0x8, addend: 0x0, symName: __ZNSt3__120__shared_ptr_emplaceI8TriangleNS_9allocatorIS1_EEEC1B8ne180100IJR5Tvec2IiES8_S8_R5Tvec3IiEES3_Li0EEES3_DpOT_, symObjAddr: 0x149A8, symBinAddr: 0x100017EAC, symSize: 0x4C }
  - { offset: 0x35FAB, size: 0x8, addend: 0x0, symName: __ZNSt3__118__allocation_guardINS_9allocatorINS_20__shared_ptr_emplaceI8TriangleNS1_IS3_EEEEEEE13__release_ptrB8ne180100Ev, symObjAddr: 0x149F4, symBinAddr: 0x100017EF8, symSize: 0x24 }
  - { offset: 0x35FDF, size: 0x8, addend: 0x0, symName: __ZNSt3__110shared_ptrI8TriangleE27__create_with_control_blockB8ne180100IS1_NS_20__shared_ptr_emplaceIS1_NS_9allocatorIS1_EEEEEES2_PT_PT0_, symObjAddr: 0x14A18, symBinAddr: 0x100017F1C, symSize: 0xA4 }
  - { offset: 0x36034, size: 0x8, addend: 0x0, symName: __ZNSt3__120__shared_ptr_emplaceI8TriangleNS_9allocatorIS1_EEE10__get_elemB8ne180100Ev, symObjAddr: 0x14ABC, symBinAddr: 0x100017FC0, symSize: 0x28 }
  - { offset: 0x3605A, size: 0x8, addend: 0x0, symName: __ZNSt3__118__allocation_guardINS_9allocatorINS_20__shared_ptr_emplaceI8TriangleNS1_IS3_EEEEEEED1B8ne180100Ev, symObjAddr: 0x14AE4, symBinAddr: 0x100017FE8, symSize: 0x2C }
  - { offset: 0x36084, size: 0x8, addend: 0x0, symName: __ZNSt3__118__allocation_guardINS_9allocatorINS_20__shared_ptr_emplaceI8TriangleNS1_IS3_EEEEEEEC2B8ne180100IS4_EET_m, symObjAddr: 0x14B10, symBinAddr: 0x100018014, symSize: 0x50 }
  - { offset: 0x360D3, size: 0x8, addend: 0x0, symName: __ZNSt3__19allocatorINS_20__shared_ptr_emplaceI8TriangleNS0_IS2_EEEEEC1B8ne180100IS2_EERKNS0_IT_EE, symObjAddr: 0x14B60, symBinAddr: 0x100018064, symSize: 0x34 }
  - { offset: 0x36110, size: 0x8, addend: 0x0, symName: __ZNSt3__116allocator_traitsINS_9allocatorINS_20__shared_ptr_emplaceI8TriangleNS1_IS3_EEEEEEE8allocateB8ne180100ERS6_m, symObjAddr: 0x14B94, symBinAddr: 0x100018098, symSize: 0x2C }
  - { offset: 0x36143, size: 0x8, addend: 0x0, symName: __ZNSt3__19allocatorINS_20__shared_ptr_emplaceI8TriangleNS0_IS2_EEEEEC2B8ne180100IS2_EERKNS0_IT_EE, symObjAddr: 0x14BC0, symBinAddr: 0x1000180C4, symSize: 0x30 }
  - { offset: 0x36180, size: 0x8, addend: 0x0, symName: __ZNSt3__116__non_trivial_ifILb1ENS_9allocatorINS_20__shared_ptr_emplaceI8TriangleNS1_IS3_EEEEEEEC2B8ne180100Ev, symObjAddr: 0x14BF0, symBinAddr: 0x1000180F4, symSize: 0x14 }
  - { offset: 0x361AA, size: 0x8, addend: 0x0, symName: __ZNSt3__19allocatorINS_20__shared_ptr_emplaceI8TriangleNS0_IS2_EEEEE8allocateB8ne180100Em, symObjAddr: 0x14C04, symBinAddr: 0x100018108, symSize: 0x5C }
  - { offset: 0x361E9, size: 0x8, addend: 0x0, symName: __ZNSt3__116allocator_traitsINS_9allocatorINS_20__shared_ptr_emplaceI8TriangleNS1_IS3_EEEEEEE8max_sizeB8ne180100IS6_vEEmRKS6_, symObjAddr: 0x14C60, symBinAddr: 0x100018164, symSize: 0x24 }
  - { offset: 0x36217, size: 0x8, addend: 0x0, symName: __ZNKSt3__19allocatorINS_20__shared_ptr_emplaceI8TriangleNS0_IS2_EEEEE8max_sizeB8ne180100Ev, symObjAddr: 0x14C84, symBinAddr: 0x100018188, symSize: 0x20 }
  - { offset: 0x3623D, size: 0x8, addend: 0x0, symName: __ZNSt3__120__shared_ptr_emplaceI8TriangleNS_9allocatorIS1_EEEC2B8ne180100IJR5Tvec2IiES8_S8_R5Tvec3IiEES3_Li0EEES3_DpOT_, symObjAddr: 0x14CA4, symBinAddr: 0x1000181A8, symSize: 0xD4 }
  - { offset: 0x362FC, size: 0x8, addend: 0x0, symName: __ZNSt3__120__shared_ptr_emplaceI8TriangleNS_9allocatorIS1_EEE8_StorageC1B8ne180100EOS3_, symObjAddr: 0x14D78, symBinAddr: 0x10001827C, symSize: 0x34 }
  - { offset: 0x36335, size: 0x8, addend: 0x0, symName: __ZNSt3__120__shared_ptr_emplaceI8TriangleNS_9allocatorIS1_EEE11__get_allocB8ne180100Ev, symObjAddr: 0x14DAC, symBinAddr: 0x1000182B0, symSize: 0x28 }
  - { offset: 0x36361, size: 0x8, addend: 0x0, symName: __ZNSt3__116allocator_traitsINS_9allocatorI8TriangleEEE9constructB8ne180100IS2_JR5Tvec2IiES8_S8_R5Tvec3IiEEvEEvRS3_PT_DpOT0_, symObjAddr: 0x14DD4, symBinAddr: 0x1000182D8, symSize: 0x4C }
  - { offset: 0x363F4, size: 0x8, addend: 0x0, symName: __ZNSt3__120__shared_ptr_emplaceI8TriangleNS_9allocatorIS1_EEE8_StorageD1B8ne180100Ev, symObjAddr: 0x14E20, symBinAddr: 0x100018324, symSize: 0x2C }
  - { offset: 0x3641E, size: 0x8, addend: 0x0, symName: __ZNSt3__120__shared_ptr_emplaceI8TriangleNS_9allocatorIS1_EEED1Ev, symObjAddr: 0x14E4C, symBinAddr: 0x100018350, symSize: 0x2C }
  - { offset: 0x3644A, size: 0x8, addend: 0x0, symName: __ZNSt3__120__shared_ptr_emplaceI8TriangleNS_9allocatorIS1_EEED0Ev, symObjAddr: 0x14E78, symBinAddr: 0x10001837C, symSize: 0x30 }
  - { offset: 0x36476, size: 0x8, addend: 0x0, symName: __ZNSt3__120__shared_ptr_emplaceI8TriangleNS_9allocatorIS1_EEE16__on_zero_sharedEv, symObjAddr: 0x14EA8, symBinAddr: 0x1000183AC, symSize: 0x24 }
  - { offset: 0x3649C, size: 0x8, addend: 0x0, symName: __ZNSt3__120__shared_ptr_emplaceI8TriangleNS_9allocatorIS1_EEE21__on_zero_shared_weakEv, symObjAddr: 0x14ECC, symBinAddr: 0x1000183D0, symSize: 0x5C }
  - { offset: 0x364DD, size: 0x8, addend: 0x0, symName: __ZNSt3__120__shared_ptr_emplaceI8TriangleNS_9allocatorIS1_EEE8_StorageC2B8ne180100EOS3_, symObjAddr: 0x14F28, symBinAddr: 0x10001842C, symSize: 0x30 }
  - { offset: 0x36516, size: 0x8, addend: 0x0, symName: __ZNSt3__120__shared_ptr_emplaceI8TriangleNS_9allocatorIS1_EEE8_Storage11__get_allocB8ne180100Ev, symObjAddr: 0x14F58, symBinAddr: 0x10001845C, symSize: 0x3C }
  - { offset: 0x36569, size: 0x8, addend: 0x0, symName: __ZNSt3__117__compressed_pairINS_9allocatorI8TriangleEES2_E16__get_first_baseB8ne180100EPS4_, symObjAddr: 0x14F94, symBinAddr: 0x100018498, symSize: 0x14 }
  - { offset: 0x3658C, size: 0x8, addend: 0x0, symName: __ZNSt3__19allocatorI8TriangleE9constructB8ne180100IS1_JR5Tvec2IiES6_S6_R5Tvec3IiEEEEvPT_DpOT0_, symObjAddr: 0x14FA8, symBinAddr: 0x1000184AC, symSize: 0x90 }
  - { offset: 0x3661B, size: 0x8, addend: 0x0, symName: __ZN8TriangleC1E5Tvec2IiES1_S1_5Tvec3IiE, symObjAddr: 0x15038, symBinAddr: 0x10001853C, symSize: 0x4C }
  - { offset: 0x36681, size: 0x8, addend: 0x0, symName: __ZN8TriangleC2E5Tvec2IiES1_S1_5Tvec3IiE, symObjAddr: 0x15084, symBinAddr: 0x100018588, symSize: 0xD0 }
  - { offset: 0x366E7, size: 0x8, addend: 0x0, symName: __ZN8TriangleD1Ev, symObjAddr: 0x15154, symBinAddr: 0x100018658, symSize: 0x2C }
  - { offset: 0x36713, size: 0x8, addend: 0x0, symName: __ZN8TriangleD0Ev, symObjAddr: 0x15180, symBinAddr: 0x100018684, symSize: 0x30 }
  - { offset: 0x3673F, size: 0x8, addend: 0x0, symName: __ZNK8Triangle4drawER6Screen, symObjAddr: 0x151B0, symBinAddr: 0x1000186B4, symSize: 0x94 }
  - { offset: 0x36773, size: 0x8, addend: 0x0, symName: __ZNK8Triangle15printAttributesEv, symObjAddr: 0x15244, symBinAddr: 0x100018748, symSize: 0x194 }
  - { offset: 0x36799, size: 0x8, addend: 0x0, symName: __ZNK8Triangle11writeToFileERNSt3__113basic_ostreamIcNS0_11char_traitsIcEEEE, symObjAddr: 0x153D8, symBinAddr: 0x1000188DC, symSize: 0x88 }
  - { offset: 0x367CD, size: 0x8, addend: 0x0, symName: __ZN8Triangle6rotateEv, symObjAddr: 0x15460, symBinAddr: 0x100018964, symSize: 0x10 }
  - { offset: 0x367F3, size: 0x8, addend: 0x0, symName: __ZNK8Triangle13checkInBoundsEii, symObjAddr: 0x15470, symBinAddr: 0x100018974, symSize: 0x88 }
  - { offset: 0x36835, size: 0x8, addend: 0x0, symName: __ZN8TriangleD2Ev, symObjAddr: 0x154F8, symBinAddr: 0x1000189FC, symSize: 0x2C }
  - { offset: 0x36861, size: 0x8, addend: 0x0, symName: __ZN6Screen12drawTriangleE5Tvec2IiES1_S1_5Tvec3IiE, symObjAddr: 0x15524, symBinAddr: 0x100018A28, symSize: 0x398 }
  - { offset: 0x3695B, size: 0x8, addend: 0x0, symName: __ZN6Screen21isPixelInsideTriangleEffffffff, symObjAddr: 0x159B4, symBinAddr: 0x100018EB8, symSize: 0x1EC }
  - { offset: 0x36A7D, size: 0x8, addend: 0x0, symName: __ZNKSt16initializer_listIiE5beginB8ne180100Ev, symObjAddr: 0x15BD0, symBinAddr: 0x1000190D4, symSize: 0x18 }
  - { offset: 0x36AA3, size: 0x8, addend: 0x0, symName: __ZNKSt16initializer_listIiE3endB8ne180100Ev, symObjAddr: 0x15BE8, symBinAddr: 0x1000190EC, symSize: 0x20 }
  - { offset: 0x36ACF, size: 0x8, addend: 0x0, symName: __ZNKSt3__16__lessIvvEclB8ne180100IiiEEbRKT_RKT0_, symObjAddr: 0x15D80, symBinAddr: 0x100019284, symSize: 0x34 }
  - { offset: 0x36B2E, size: 0x8, addend: 0x0, symName: __ZNKSt3__110__identityclB8ne180100IRKiEEOT_S5_, symObjAddr: 0x15DB4, symBinAddr: 0x1000192B8, symSize: 0x18 }
  - { offset: 0x36B6B, size: 0x8, addend: 0x0, symName: __ZN5Tvec2IfE12crossProductERKS0_, symObjAddr: 0x15F40, symBinAddr: 0x100019444, symSize: 0x48 }
  - { offset: 0x36B9F, size: 0x8, addend: 0x0, symName: __ZNSt3__120__shared_ptr_emplaceI8TriangleNS_9allocatorIS1_EEE8_StorageD2B8ne180100Ev, symObjAddr: 0x15F88, symBinAddr: 0x10001948C, symSize: 0x2C }
  - { offset: 0x36BC9, size: 0x8, addend: 0x0, symName: __ZNSt3__120__shared_ptr_emplaceI8TriangleNS_9allocatorIS1_EEED2Ev, symObjAddr: 0x15FB4, symBinAddr: 0x1000194B8, symSize: 0x48 }
  - { offset: 0x36BF5, size: 0x8, addend: 0x0, symName: __ZNSt3__120__shared_ptr_emplaceI8TriangleNS_9allocatorIS1_EEE21__on_zero_shared_implB8ne180100IS3_Li0EEEvv, symObjAddr: 0x15FFC, symBinAddr: 0x100019500, symSize: 0x44 }
  - { offset: 0x36C45, size: 0x8, addend: 0x0, symName: __ZNSt3__116allocator_traitsINS_9allocatorI8TriangleEEE7destroyB8ne180100IS2_vEEvRS3_PT_, symObjAddr: 0x16040, symBinAddr: 0x100019544, symSize: 0x2C }
  - { offset: 0x36C82, size: 0x8, addend: 0x0, symName: __ZNSt3__19allocatorI8TriangleE7destroyB8ne180100EPS1_, symObjAddr: 0x1606C, symBinAddr: 0x100019570, symSize: 0x30 }
  - { offset: 0x36CB6, size: 0x8, addend: 0x0, symName: __ZNSt3__116allocator_traitsINS_9allocatorINS_20__shared_ptr_emplaceI8TriangleNS1_IS3_EEEEEEE10deallocateB8ne180100ERS6_PS5_m, symObjAddr: 0x1609C, symBinAddr: 0x1000195A0, symSize: 0x34 }
  - { offset: 0x36CF8, size: 0x8, addend: 0x0, symName: __ZNSt3__114pointer_traitsIPNS_20__shared_ptr_emplaceI8TriangleNS_9allocatorIS2_EEEEE10pointer_toB8ne180100ERS5_, symObjAddr: 0x160D0, symBinAddr: 0x1000195D4, symSize: 0x14 }
  - { offset: 0x36D1B, size: 0x8, addend: 0x0, symName: __ZNSt3__19allocatorINS_20__shared_ptr_emplaceI8TriangleNS0_IS2_EEEEE10deallocateB8ne180100EPS4_m, symObjAddr: 0x160E4, symBinAddr: 0x1000195E8, symSize: 0x44 }
  - { offset: 0x36D5D, size: 0x8, addend: 0x0, symName: __ZNSt3__110shared_ptrI8TriangleEC1B8ne180100Ev, symObjAddr: 0x16128, symBinAddr: 0x10001962C, symSize: 0x2C }
  - { offset: 0x36D87, size: 0x8, addend: 0x0, symName: __ZNSt3__110shared_ptrI8TriangleE18__enable_weak_thisB8ne180100Ez, symObjAddr: 0x16154, symBinAddr: 0x100019658, symSize: 0x10 }
  - { offset: 0x36DAE, size: 0x8, addend: 0x0, symName: __ZNSt3__110shared_ptrI8TriangleEC2B8ne180100Ev, symObjAddr: 0x16164, symBinAddr: 0x100019668, symSize: 0x1C }
  - { offset: 0x36DD8, size: 0x8, addend: 0x0, symName: __ZNSt3__120__shared_ptr_emplaceI8TriangleNS_9allocatorIS1_EEE8_Storage10__get_elemB8ne180100Ev, symObjAddr: 0x16180, symBinAddr: 0x100019684, symSize: 0x3C }
  - { offset: 0x36E2B, size: 0x8, addend: 0x0, symName: __ZNSt3__117__compressed_pairINS_9allocatorI8TriangleEES2_E17__get_second_baseB8ne180100EPS4_, symObjAddr: 0x161BC, symBinAddr: 0x1000196C0, symSize: 0x14 }
  - { offset: 0x36E4E, size: 0x8, addend: 0x0, symName: __ZNSt3__118__allocation_guardINS_9allocatorINS_20__shared_ptr_emplaceI8TriangleNS1_IS3_EEEEEEED2B8ne180100Ev, symObjAddr: 0x161D0, symBinAddr: 0x1000196D4, symSize: 0x2C }
  - { offset: 0x36E78, size: 0x8, addend: 0x0, symName: __ZNSt3__118__allocation_guardINS_9allocatorINS_20__shared_ptr_emplaceI8TriangleNS1_IS3_EEEEEEE9__destroyB8ne180100Ev, symObjAddr: 0x161FC, symBinAddr: 0x100019700, symSize: 0x4C }
  - { offset: 0x36E9E, size: 0x8, addend: 0x0, symName: __ZNSt3__19allocatorI8TriangleEC2B8ne180100Ev, symObjAddr: 0x16248, symBinAddr: 0x10001974C, symSize: 0x2C }
  - { offset: 0x36EC8, size: 0x8, addend: 0x0, symName: __ZNSt3__116__non_trivial_ifILb1ENS_9allocatorI8TriangleEEEC2B8ne180100Ev, symObjAddr: 0x16274, symBinAddr: 0x100019778, symSize: 0x14 }
  - { offset: 0x36EF2, size: 0x8, addend: 0x0, symName: __ZNSt3__110shared_ptrI7ElementEC2B8ne180100I8TrianglevEEONS0_IT_EE, symObjAddr: 0x16288, symBinAddr: 0x10001978C, symSize: 0x40 }
  - { offset: 0x36F35, size: 0x8, addend: 0x0, symName: __ZNSt3__110shared_ptrI8TriangleED2B8ne180100Ev, symObjAddr: 0x162C8, symBinAddr: 0x1000197CC, symSize: 0x54 }
  - { offset: 0x36F5F, size: 0x8, addend: 0x0, symName: __ZN6ButtonC2ENSt3__110shared_ptrI7ElementEENS1_I6LayoutEE, symObjAddr: 0x1631C, symBinAddr: 0x100019820, symSize: 0x4C }
  - { offset: 0x36FA7, size: 0x8, addend: 0x0, symName: __ZN11SoundPlayerC2Ev, symObjAddr: 0x16368, symBinAddr: 0x10001986C, symSize: 0xAC }
  - { offset: 0x36FD1, size: 0x8, addend: 0x0, symName: __ZNKSt3__112basic_stringIcNS_11char_traitsIcEENS_9allocatorIcEEE5c_strB8ne180100Ev, symObjAddr: 0x16414, symBinAddr: 0x100019918, symSize: 0x24 }
  - { offset: 0x36FF7, size: 0x8, addend: 0x0, symName: __ZN10ClickEventC2Eii, symObjAddr: 0x16438, symBinAddr: 0x10001993C, symSize: 0x58 }
  - { offset: 0x3703D, size: 0x8, addend: 0x0, symName: __ZN5EventC2Ev, symObjAddr: 0x16490, symBinAddr: 0x100019994, symSize: 0x24 }
  - { offset: 0x37067, size: 0x8, addend: 0x0, symName: __ZN5Event6handleEv, symObjAddr: 0x164B4, symBinAddr: 0x1000199B8, symSize: 0x10 }
  - { offset: 0x3708D, size: 0x8, addend: 0x0, symName: __ZN10ClickEventC2ERKS_, symObjAddr: 0x164C4, symBinAddr: 0x1000199C8, symSize: 0x58 }
  - { offset: 0x370CD, size: 0x8, addend: 0x0, symName: __ZN5EventC2ERKS_, symObjAddr: 0x1651C, symBinAddr: 0x100019A20, symSize: 0x34 }
  - { offset: 0x3712B, size: 0x8, addend: 0x0, symName: __ZNSt3__110shared_ptrI5EventEC1B8ne180100I9ShowEventvEEONS0_IT_EE, symObjAddr: 0x16590, symBinAddr: 0x100019A94, symSize: 0x34 }
  - { offset: 0x3716E, size: 0x8, addend: 0x0, symName: __ZNSt3__110shared_ptrI9ShowEventED1B8ne180100Ev, symObjAddr: 0x165C4, symBinAddr: 0x100019AC8, symSize: 0x2C }
  - { offset: 0x37198, size: 0x8, addend: 0x0, symName: __ZNSt3__19allocatorI9ShowEventEC1B8ne180100Ev, symObjAddr: 0x16688, symBinAddr: 0x100019B8C, symSize: 0x2C }
  - { offset: 0x37219, size: 0x8, addend: 0x0, symName: __ZNSt3__118__allocation_guardINS_9allocatorINS_20__shared_ptr_emplaceI9ShowEventNS1_IS3_EEEEEEEC1B8ne180100IS4_EET_m, symObjAddr: 0x166B4, symBinAddr: 0x100019BB8, symSize: 0x34 }
  - { offset: 0x37268, size: 0x8, addend: 0x0, symName: __ZNKSt3__118__allocation_guardINS_9allocatorINS_20__shared_ptr_emplaceI9ShowEventNS1_IS3_EEEEEEE5__getB8ne180100Ev, symObjAddr: 0x166E8, symBinAddr: 0x100019BEC, symSize: 0x18 }
  - { offset: 0x3728E, size: 0x8, addend: 0x0, symName: __ZNSt3__120__shared_ptr_emplaceI9ShowEventNS_9allocatorIS1_EEEC1B8ne180100IJRNS_10shared_ptrI6LayoutEEES3_Li0EEES3_DpOT_, symObjAddr: 0x16700, symBinAddr: 0x100019C04, symSize: 0x34 }
  - { offset: 0x372F0, size: 0x8, addend: 0x0, symName: __ZNSt3__118__allocation_guardINS_9allocatorINS_20__shared_ptr_emplaceI9ShowEventNS1_IS3_EEEEEEE13__release_ptrB8ne180100Ev, symObjAddr: 0x16734, symBinAddr: 0x100019C38, symSize: 0x24 }
  - { offset: 0x37324, size: 0x8, addend: 0x0, symName: __ZNSt3__110shared_ptrI9ShowEventE27__create_with_control_blockB8ne180100IS1_NS_20__shared_ptr_emplaceIS1_NS_9allocatorIS1_EEEEEES2_PT_PT0_, symObjAddr: 0x16758, symBinAddr: 0x100019C5C, symSize: 0xA4 }
  - { offset: 0x37379, size: 0x8, addend: 0x0, symName: __ZNSt3__120__shared_ptr_emplaceI9ShowEventNS_9allocatorIS1_EEE10__get_elemB8ne180100Ev, symObjAddr: 0x167FC, symBinAddr: 0x100019D00, symSize: 0x28 }
  - { offset: 0x3739F, size: 0x8, addend: 0x0, symName: __ZNSt3__118__allocation_guardINS_9allocatorINS_20__shared_ptr_emplaceI9ShowEventNS1_IS3_EEEEEEED1B8ne180100Ev, symObjAddr: 0x16824, symBinAddr: 0x100019D28, symSize: 0x2C }
  - { offset: 0x373C9, size: 0x8, addend: 0x0, symName: __ZNSt3__118__allocation_guardINS_9allocatorINS_20__shared_ptr_emplaceI9ShowEventNS1_IS3_EEEEEEEC2B8ne180100IS4_EET_m, symObjAddr: 0x16850, symBinAddr: 0x100019D54, symSize: 0x50 }
  - { offset: 0x37418, size: 0x8, addend: 0x0, symName: __ZNSt3__19allocatorINS_20__shared_ptr_emplaceI9ShowEventNS0_IS2_EEEEEC1B8ne180100IS2_EERKNS0_IT_EE, symObjAddr: 0x168A0, symBinAddr: 0x100019DA4, symSize: 0x34 }
  - { offset: 0x37455, size: 0x8, addend: 0x0, symName: __ZNSt3__116allocator_traitsINS_9allocatorINS_20__shared_ptr_emplaceI9ShowEventNS1_IS3_EEEEEEE8allocateB8ne180100ERS6_m, symObjAddr: 0x168D4, symBinAddr: 0x100019DD8, symSize: 0x2C }
  - { offset: 0x37488, size: 0x8, addend: 0x0, symName: __ZNSt3__19allocatorINS_20__shared_ptr_emplaceI9ShowEventNS0_IS2_EEEEEC2B8ne180100IS2_EERKNS0_IT_EE, symObjAddr: 0x16900, symBinAddr: 0x100019E04, symSize: 0x30 }
  - { offset: 0x374C5, size: 0x8, addend: 0x0, symName: __ZNSt3__116__non_trivial_ifILb1ENS_9allocatorINS_20__shared_ptr_emplaceI9ShowEventNS1_IS3_EEEEEEEC2B8ne180100Ev, symObjAddr: 0x16930, symBinAddr: 0x100019E34, symSize: 0x14 }
  - { offset: 0x374EF, size: 0x8, addend: 0x0, symName: __ZNSt3__19allocatorINS_20__shared_ptr_emplaceI9ShowEventNS0_IS2_EEEEE8allocateB8ne180100Em, symObjAddr: 0x16944, symBinAddr: 0x100019E48, symSize: 0x5C }
  - { offset: 0x3752E, size: 0x8, addend: 0x0, symName: __ZNSt3__116allocator_traitsINS_9allocatorINS_20__shared_ptr_emplaceI9ShowEventNS1_IS3_EEEEEEE8max_sizeB8ne180100IS6_vEEmRKS6_, symObjAddr: 0x169A0, symBinAddr: 0x100019EA4, symSize: 0x24 }
  - { offset: 0x3755C, size: 0x8, addend: 0x0, symName: __ZNKSt3__19allocatorINS_20__shared_ptr_emplaceI9ShowEventNS0_IS2_EEEEE8max_sizeB8ne180100Ev, symObjAddr: 0x169C4, symBinAddr: 0x100019EC8, symSize: 0x20 }
  - { offset: 0x37582, size: 0x8, addend: 0x0, symName: __ZNSt3__120__shared_ptr_emplaceI9ShowEventNS_9allocatorIS1_EEEC2B8ne180100IJRNS_10shared_ptrI6LayoutEEES3_Li0EEES3_DpOT_, symObjAddr: 0x169E4, symBinAddr: 0x100019EE8, symSize: 0xBC }
  - { offset: 0x37605, size: 0x8, addend: 0x0, symName: __ZNSt3__120__shared_ptr_emplaceI9ShowEventNS_9allocatorIS1_EEE8_StorageC1B8ne180100EOS3_, symObjAddr: 0x16AA0, symBinAddr: 0x100019FA4, symSize: 0x34 }
  - { offset: 0x3763E, size: 0x8, addend: 0x0, symName: __ZNSt3__120__shared_ptr_emplaceI9ShowEventNS_9allocatorIS1_EEE11__get_allocB8ne180100Ev, symObjAddr: 0x16AD4, symBinAddr: 0x100019FD8, symSize: 0x28 }
  - { offset: 0x3766A, size: 0x8, addend: 0x0, symName: __ZNSt3__116allocator_traitsINS_9allocatorI9ShowEventEEE9constructB8ne180100IS2_JRNS_10shared_ptrI6LayoutEEEvEEvRS3_PT_DpOT0_, symObjAddr: 0x16AFC, symBinAddr: 0x10001A000, symSize: 0x34 }
  - { offset: 0x376C1, size: 0x8, addend: 0x0, symName: __ZNSt3__120__shared_ptr_emplaceI9ShowEventNS_9allocatorIS1_EEE8_StorageD1B8ne180100Ev, symObjAddr: 0x16B30, symBinAddr: 0x10001A034, symSize: 0x2C }
  - { offset: 0x376EB, size: 0x8, addend: 0x0, symName: __ZNSt3__120__shared_ptr_emplaceI9ShowEventNS_9allocatorIS1_EEED1Ev, symObjAddr: 0x16B5C, symBinAddr: 0x10001A060, symSize: 0x2C }
  - { offset: 0x37717, size: 0x8, addend: 0x0, symName: __ZNSt3__120__shared_ptr_emplaceI9ShowEventNS_9allocatorIS1_EEED0Ev, symObjAddr: 0x16B88, symBinAddr: 0x10001A08C, symSize: 0x30 }
  - { offset: 0x37743, size: 0x8, addend: 0x0, symName: __ZNSt3__120__shared_ptr_emplaceI9ShowEventNS_9allocatorIS1_EEE16__on_zero_sharedEv, symObjAddr: 0x16BB8, symBinAddr: 0x10001A0BC, symSize: 0x24 }
  - { offset: 0x37769, size: 0x8, addend: 0x0, symName: __ZNSt3__120__shared_ptr_emplaceI9ShowEventNS_9allocatorIS1_EEE21__on_zero_shared_weakEv, symObjAddr: 0x16BDC, symBinAddr: 0x10001A0E0, symSize: 0x5C }
  - { offset: 0x377AA, size: 0x8, addend: 0x0, symName: __ZNSt3__120__shared_ptr_emplaceI9ShowEventNS_9allocatorIS1_EEE8_StorageC2B8ne180100EOS3_, symObjAddr: 0x16C38, symBinAddr: 0x10001A13C, symSize: 0x30 }
  - { offset: 0x377E3, size: 0x8, addend: 0x0, symName: __ZNSt3__120__shared_ptr_emplaceI9ShowEventNS_9allocatorIS1_EEE8_Storage11__get_allocB8ne180100Ev, symObjAddr: 0x16C68, symBinAddr: 0x10001A16C, symSize: 0x3C }
  - { offset: 0x37836, size: 0x8, addend: 0x0, symName: __ZNSt3__117__compressed_pairINS_9allocatorI9ShowEventEES2_E16__get_first_baseB8ne180100EPS4_, symObjAddr: 0x16CA4, symBinAddr: 0x10001A1A8, symSize: 0x14 }
  - { offset: 0x37859, size: 0x8, addend: 0x0, symName: __ZNSt3__19allocatorI9ShowEventE9constructB8ne180100IS1_JRNS_10shared_ptrI6LayoutEEEEEvPT_DpOT0_, symObjAddr: 0x16CB8, symBinAddr: 0x10001A1BC, symSize: 0x74 }
  - { offset: 0x378AF, size: 0x8, addend: 0x0, symName: __ZN9ShowEventC1ENSt3__110shared_ptrI6LayoutEE, symObjAddr: 0x16D2C, symBinAddr: 0x10001A230, symSize: 0x34 }
  - { offset: 0x378E8, size: 0x8, addend: 0x0, symName: __ZN9ShowEventC2ENSt3__110shared_ptrI6LayoutEE, symObjAddr: 0x16D60, symBinAddr: 0x10001A264, symSize: 0x54 }
  - { offset: 0x37921, size: 0x8, addend: 0x0, symName: __ZN9ShowEvent6handleEv, symObjAddr: 0x16DB4, symBinAddr: 0x10001A2B8, symSize: 0x64 }
  - { offset: 0x37947, size: 0x8, addend: 0x0, symName: __ZNSt3__120__shared_ptr_emplaceI9ShowEventNS_9allocatorIS1_EEE8_StorageD2B8ne180100Ev, symObjAddr: 0x16E18, symBinAddr: 0x10001A31C, symSize: 0x2C }
  - { offset: 0x37971, size: 0x8, addend: 0x0, symName: __ZNSt3__120__shared_ptr_emplaceI9ShowEventNS_9allocatorIS1_EEED2Ev, symObjAddr: 0x16E44, symBinAddr: 0x10001A348, symSize: 0x48 }
  - { offset: 0x3799D, size: 0x8, addend: 0x0, symName: __ZNSt3__120__shared_ptr_emplaceI9ShowEventNS_9allocatorIS1_EEE21__on_zero_shared_implB8ne180100IS3_Li0EEEvv, symObjAddr: 0x16E8C, symBinAddr: 0x10001A390, symSize: 0x44 }
  - { offset: 0x379ED, size: 0x8, addend: 0x0, symName: __ZNSt3__116allocator_traitsINS_9allocatorI9ShowEventEEE7destroyB8ne180100IS2_vEEvRS3_PT_, symObjAddr: 0x16ED0, symBinAddr: 0x10001A3D4, symSize: 0x2C }
  - { offset: 0x37A2A, size: 0x8, addend: 0x0, symName: __ZNSt3__19allocatorI9ShowEventE7destroyB8ne180100EPS1_, symObjAddr: 0x16EFC, symBinAddr: 0x10001A400, symSize: 0x28 }
  - { offset: 0x37A5E, size: 0x8, addend: 0x0, symName: __ZN9ShowEventD1Ev, symObjAddr: 0x16F24, symBinAddr: 0x10001A428, symSize: 0x2C }
  - { offset: 0x37A8A, size: 0x8, addend: 0x0, symName: __ZN9ShowEventD2Ev, symObjAddr: 0x16F50, symBinAddr: 0x10001A454, symSize: 0x40 }
  - { offset: 0x37AB6, size: 0x8, addend: 0x0, symName: __ZNSt3__116allocator_traitsINS_9allocatorINS_20__shared_ptr_emplaceI9ShowEventNS1_IS3_EEEEEEE10deallocateB8ne180100ERS6_PS5_m, symObjAddr: 0x16F90, symBinAddr: 0x10001A494, symSize: 0x34 }
  - { offset: 0x37AF8, size: 0x8, addend: 0x0, symName: __ZNSt3__114pointer_traitsIPNS_20__shared_ptr_emplaceI9ShowEventNS_9allocatorIS2_EEEEE10pointer_toB8ne180100ERS5_, symObjAddr: 0x16FC4, symBinAddr: 0x10001A4C8, symSize: 0x14 }
  - { offset: 0x37B1B, size: 0x8, addend: 0x0, symName: __ZNSt3__19allocatorINS_20__shared_ptr_emplaceI9ShowEventNS0_IS2_EEEEE10deallocateB8ne180100EPS4_m, symObjAddr: 0x16FD8, symBinAddr: 0x10001A4DC, symSize: 0x44 }
  - { offset: 0x37B5D, size: 0x8, addend: 0x0, symName: __ZNSt3__110shared_ptrI9ShowEventEC1B8ne180100Ev, symObjAddr: 0x1701C, symBinAddr: 0x10001A520, symSize: 0x2C }
  - { offset: 0x37B87, size: 0x8, addend: 0x0, symName: __ZNSt3__110shared_ptrI9ShowEventE18__enable_weak_thisB8ne180100Ez, symObjAddr: 0x17048, symBinAddr: 0x10001A54C, symSize: 0x10 }
  - { offset: 0x37BAE, size: 0x8, addend: 0x0, symName: __ZNSt3__110shared_ptrI9ShowEventEC2B8ne180100Ev, symObjAddr: 0x17058, symBinAddr: 0x10001A55C, symSize: 0x1C }
  - { offset: 0x37BD8, size: 0x8, addend: 0x0, symName: __ZNSt3__120__shared_ptr_emplaceI9ShowEventNS_9allocatorIS1_EEE8_Storage10__get_elemB8ne180100Ev, symObjAddr: 0x17074, symBinAddr: 0x10001A578, symSize: 0x3C }
  - { offset: 0x37C2B, size: 0x8, addend: 0x0, symName: __ZNSt3__117__compressed_pairINS_9allocatorI9ShowEventEES2_E17__get_second_baseB8ne180100EPS4_, symObjAddr: 0x170B0, symBinAddr: 0x10001A5B4, symSize: 0x14 }
  - { offset: 0x37C4E, size: 0x8, addend: 0x0, symName: __ZNSt3__118__allocation_guardINS_9allocatorINS_20__shared_ptr_emplaceI9ShowEventNS1_IS3_EEEEEEED2B8ne180100Ev, symObjAddr: 0x170C4, symBinAddr: 0x10001A5C8, symSize: 0x2C }
  - { offset: 0x37C78, size: 0x8, addend: 0x0, symName: __ZNSt3__118__allocation_guardINS_9allocatorINS_20__shared_ptr_emplaceI9ShowEventNS1_IS3_EEEEEEE9__destroyB8ne180100Ev, symObjAddr: 0x170F0, symBinAddr: 0x10001A5F4, symSize: 0x4C }
  - { offset: 0x37C9E, size: 0x8, addend: 0x0, symName: __ZNSt3__19allocatorI9ShowEventEC2B8ne180100Ev, symObjAddr: 0x1713C, symBinAddr: 0x10001A640, symSize: 0x2C }
  - { offset: 0x37CC8, size: 0x8, addend: 0x0, symName: __ZNSt3__116__non_trivial_ifILb1ENS_9allocatorI9ShowEventEEEC2B8ne180100Ev, symObjAddr: 0x17168, symBinAddr: 0x10001A66C, symSize: 0x14 }
  - { offset: 0x37CF2, size: 0x8, addend: 0x0, symName: __ZNSt3__110shared_ptrI5EventEC2B8ne180100I9ShowEventvEEONS0_IT_EE, symObjAddr: 0x1717C, symBinAddr: 0x10001A680, symSize: 0x40 }
  - { offset: 0x37D35, size: 0x8, addend: 0x0, symName: __ZNSt3__110shared_ptrI9ShowEventED2B8ne180100Ev, symObjAddr: 0x171BC, symBinAddr: 0x10001A6C0, symSize: 0x54 }
  - { offset: 0x37D5F, size: 0x8, addend: 0x0, symName: __ZN11SoundPlayerD2Ev, symObjAddr: 0x17210, symBinAddr: 0x10001A714, symSize: 0x78 }
  - { offset: 0x37D89, size: 0x8, addend: 0x0, symName: __ZN6ButtonD2Ev, symObjAddr: 0x17288, symBinAddr: 0x10001A78C, symSize: 0x38 }
  - { offset: 0x37DB5, size: 0x8, addend: 0x0, symName: __ZN7GUIFileD2Ev, symObjAddr: 0x172C0, symBinAddr: 0x10001A7C4, symSize: 0x50 }
  - { offset: 0x37DE1, size: 0x8, addend: 0x0, symName: __ZN6ScreenD2Ev, symObjAddr: 0x17310, symBinAddr: 0x10001A814, symSize: 0x5C }
  - { offset: 0x37E2E, size: 0x8, addend: 0x0, symName: __ZNKSt3__113basic_ostreamIcNS_11char_traitsIcEEE6sentrycvbB8ne180100Ev, symObjAddr: 0x17558, symBinAddr: 0x10001AA5C, symSize: 0x1C }
  - { offset: 0x37E54, size: 0x8, addend: 0x0, symName: __ZNSt3__119ostreambuf_iteratorIcNS_11char_traitsIcEEEC1B8ne180100ERNS_13basic_ostreamIcS2_EE, symObjAddr: 0x177B4, symBinAddr: 0x10001ACB8, symSize: 0x34 }
  - { offset: 0x37E8C, size: 0x8, addend: 0x0, symName: __ZNKSt3__18ios_base5flagsB8ne180100Ev, symObjAddr: 0x177E8, symBinAddr: 0x10001ACEC, symSize: 0x18 }
  - { offset: 0x37EB4, size: 0x8, addend: 0x0, symName: __ZNKSt3__19basic_iosIcNS_11char_traitsIcEEE4fillB8ne180100Ev, symObjAddr: 0x17800, symBinAddr: 0x10001AD04, symSize: 0x64 }
  - { offset: 0x37EDC, size: 0x8, addend: 0x0, symName: __ZNKSt3__119ostreambuf_iteratorIcNS_11char_traitsIcEEE6failedB8ne180100Ev, symObjAddr: 0x17864, symBinAddr: 0x10001AD68, symSize: 0x24 }
  - { offset: 0x37F02, size: 0x8, addend: 0x0, symName: __ZNKSt3__18ios_base5widthB8ne180100Ev, symObjAddr: 0x17888, symBinAddr: 0x10001AD8C, symSize: 0x18 }
  - { offset: 0x37F2A, size: 0x8, addend: 0x0, symName: __ZNSt3__115basic_streambufIcNS_11char_traitsIcEEE5sputnB8ne180100EPKcl, symObjAddr: 0x178A0, symBinAddr: 0x10001ADA4, symSize: 0x3C }
  - { offset: 0x37F6C, size: 0x8, addend: 0x0, symName: __ZNSt3__112basic_stringIcNS_11char_traitsIcEENS_9allocatorIcEEEC1B8ne180100Emc, symObjAddr: 0x178DC, symBinAddr: 0x10001ADE0, symSize: 0x3C }
  - { offset: 0x37FB4, size: 0x8, addend: 0x0, symName: __ZNSt3__112basic_stringIcNS_11char_traitsIcEENS_9allocatorIcEEE4dataB8ne180100Ev, symObjAddr: 0x17918, symBinAddr: 0x10001AE1C, symSize: 0x28 }
  - { offset: 0x37FDA, size: 0x8, addend: 0x0, symName: __ZNSt3__18ios_base5widthB8ne180100El, symObjAddr: 0x17940, symBinAddr: 0x10001AE44, symSize: 0x2C }
  - { offset: 0x38020, size: 0x8, addend: 0x0, symName: __ZNSt3__112basic_stringIcNS_11char_traitsIcEENS_9allocatorIcEEEC2B8ne180100Emc, symObjAddr: 0x1796C, symBinAddr: 0x10001AE70, symSize: 0x4C }
  - { offset: 0x38068, size: 0x8, addend: 0x0, symName: __ZNSt3__117__compressed_pairINS_12basic_stringIcNS_11char_traitsIcEENS_9allocatorIcEEE5__repES5_EC1B8ne180100INS_18__default_init_tagESA_EEOT_OT0_, symObjAddr: 0x179B8, symBinAddr: 0x10001AEBC, symSize: 0x3C }
  - { offset: 0x380C0, size: 0x8, addend: 0x0, symName: __ZNSt3__117__compressed_pairINS_12basic_stringIcNS_11char_traitsIcEENS_9allocatorIcEEE5__repES5_EC2B8ne180100INS_18__default_init_tagESA_EEOT_OT0_, symObjAddr: 0x179F4, symBinAddr: 0x10001AEF8, symSize: 0x3C }
  - { offset: 0x38118, size: 0x8, addend: 0x0, symName: __ZNSt3__122__compressed_pair_elemINS_12basic_stringIcNS_11char_traitsIcEENS_9allocatorIcEEE5__repELi0ELb0EEC2B8ne180100ENS_18__default_init_tagE, symObjAddr: 0x17A30, symBinAddr: 0x10001AF34, symSize: 0x14 }
  - { offset: 0x3814C, size: 0x8, addend: 0x0, symName: __ZNSt3__119ostreambuf_iteratorIcNS_11char_traitsIcEEEC2B8ne180100ERNS_13basic_ostreamIcS2_EE, symObjAddr: 0x17A58, symBinAddr: 0x10001AF5C, symSize: 0x54 }
  - { offset: 0x38184, size: 0x8, addend: 0x0, symName: __ZNSt3__110shared_ptrI6LayoutEC2B8ne180100ERKS2_, symObjAddr: 0x17AAC, symBinAddr: 0x10001AFB0, symSize: 0x70 }
  - { offset: 0x381BD, size: 0x8, addend: 0x0, symName: __ZNSt3__119__shared_weak_count12__add_sharedB8ne180100Ev, symObjAddr: 0x17B1C, symBinAddr: 0x10001B020, symSize: 0x24 }
  - { offset: 0x381E3, size: 0x8, addend: 0x0, symName: __ZNSt3__114__shared_count12__add_sharedB8ne180100Ev, symObjAddr: 0x17B40, symBinAddr: 0x10001B044, symSize: 0x28 }
  - { offset: 0x38209, size: 0x8, addend: 0x0, symName: __ZNSt3__110shared_ptrI6LayoutED2B8ne180100Ev, symObjAddr: 0x17B98, symBinAddr: 0x10001B09C, symSize: 0x54 }
  - { offset: 0x38233, size: 0x8, addend: 0x0, symName: __ZNSt3__110shared_ptrI6LayoutE4swapB8ne180100ERS2_, symObjAddr: 0x17BEC, symBinAddr: 0x10001B0F0, symSize: 0x44 }
  - { offset: 0x38268, size: 0x8, addend: 0x0, symName: __ZNSt3__110shared_ptrI7ElementED2B8ne180100Ev, symObjAddr: 0x17CA8, symBinAddr: 0x10001B1AC, symSize: 0x54 }
  - { offset: 0x38292, size: 0x8, addend: 0x0, symName: __ZNSt3__110shared_ptrI7ElementEC2B8ne180100ERKS2_, symObjAddr: 0x17CFC, symBinAddr: 0x10001B200, symSize: 0x70 }
  - { offset: 0x382CB, size: 0x8, addend: 0x0, symName: __ZNSt3__112basic_stringIcNS_11char_traitsIcEENS_9allocatorIcEEEC2B8ne180100ILi0EEEPKc, symObjAddr: 0x17D6C, symBinAddr: 0x10001B270, symSize: 0x58 }
  - { offset: 0x3830A, size: 0x8, addend: 0x0, symName: __ZNSt3__16vectorINS_10shared_ptrI7ElementEENS_9allocatorIS3_EEE22__construct_one_at_endB8ne180100IJRKS3_EEEvDpOT_, symObjAddr: 0x17DC4, symBinAddr: 0x10001B2C8, symSize: 0x90 }
  - { offset: 0x38359, size: 0x8, addend: 0x0, symName: __ZNSt3__16vectorINS_10shared_ptrI7ElementEENS_9allocatorIS3_EEE21__push_back_slow_pathIRKS3_EEPS3_OT_, symObjAddr: 0x17E54, symBinAddr: 0x10001B358, symSize: 0xE8 }
  - { offset: 0x383B7, size: 0x8, addend: 0x0, symName: __ZNSt3__116allocator_traitsINS_9allocatorINS_10shared_ptrI7ElementEEEEE9constructB8ne180100IS4_JRKS4_EvEEvRS5_PT_DpOT0_, symObjAddr: 0x17F3C, symBinAddr: 0x10001B440, symSize: 0x34 }
  - { offset: 0x3840E, size: 0x8, addend: 0x0, symName: __ZNSt3__19allocatorINS_10shared_ptrI7ElementEEE9constructB8ne180100IS3_JRKS3_EEEvPT_DpOT0_, symObjAddr: 0x17F70, symBinAddr: 0x10001B474, symSize: 0x30 }
  - { offset: 0x38464, size: 0x8, addend: 0x0, symName: __ZNSt3__19allocatorI11SoundPlayerEC1B8ne180100Ev, symObjAddr: 0x18038, symBinAddr: 0x10001B53C, symSize: 0x2C }
  - { offset: 0x384E5, size: 0x8, addend: 0x0, symName: __ZNSt3__118__allocation_guardINS_9allocatorINS_20__shared_ptr_emplaceI11SoundPlayerNS1_IS3_EEEEEEEC1B8ne180100IS4_EET_m, symObjAddr: 0x18064, symBinAddr: 0x10001B568, symSize: 0x34 }
  - { offset: 0x38534, size: 0x8, addend: 0x0, symName: __ZNKSt3__118__allocation_guardINS_9allocatorINS_20__shared_ptr_emplaceI11SoundPlayerNS1_IS3_EEEEEEE5__getB8ne180100Ev, symObjAddr: 0x18098, symBinAddr: 0x10001B59C, symSize: 0x18 }
  - { offset: 0x3855A, size: 0x8, addend: 0x0, symName: __ZNSt3__120__shared_ptr_emplaceI11SoundPlayerNS_9allocatorIS1_EEEC1B8ne180100IJRS1_ES3_Li0EEES3_DpOT_, symObjAddr: 0x180B0, symBinAddr: 0x10001B5B4, symSize: 0x34 }
  - { offset: 0x385BC, size: 0x8, addend: 0x0, symName: __ZNSt3__118__allocation_guardINS_9allocatorINS_20__shared_ptr_emplaceI11SoundPlayerNS1_IS3_EEEEEEE13__release_ptrB8ne180100Ev, symObjAddr: 0x180E4, symBinAddr: 0x10001B5E8, symSize: 0x24 }
  - { offset: 0x385F0, size: 0x8, addend: 0x0, symName: __ZNSt3__110shared_ptrI11SoundPlayerE27__create_with_control_blockB8ne180100IS1_NS_20__shared_ptr_emplaceIS1_NS_9allocatorIS1_EEEEEES2_PT_PT0_, symObjAddr: 0x18108, symBinAddr: 0x10001B60C, symSize: 0xA4 }
  - { offset: 0x38645, size: 0x8, addend: 0x0, symName: __ZNSt3__120__shared_ptr_emplaceI11SoundPlayerNS_9allocatorIS1_EEE10__get_elemB8ne180100Ev, symObjAddr: 0x181AC, symBinAddr: 0x10001B6B0, symSize: 0x28 }
  - { offset: 0x3866B, size: 0x8, addend: 0x0, symName: __ZNSt3__118__allocation_guardINS_9allocatorINS_20__shared_ptr_emplaceI11SoundPlayerNS1_IS3_EEEEEEED1B8ne180100Ev, symObjAddr: 0x181D4, symBinAddr: 0x10001B6D8, symSize: 0x2C }
  - { offset: 0x38695, size: 0x8, addend: 0x0, symName: __ZNSt3__118__allocation_guardINS_9allocatorINS_20__shared_ptr_emplaceI11SoundPlayerNS1_IS3_EEEEEEEC2B8ne180100IS4_EET_m, symObjAddr: 0x18200, symBinAddr: 0x10001B704, symSize: 0x50 }
  - { offset: 0x386E4, size: 0x8, addend: 0x0, symName: __ZNSt3__19allocatorINS_20__shared_ptr_emplaceI11SoundPlayerNS0_IS2_EEEEEC1B8ne180100IS2_EERKNS0_IT_EE, symObjAddr: 0x18250, symBinAddr: 0x10001B754, symSize: 0x34 }
  - { offset: 0x38721, size: 0x8, addend: 0x0, symName: __ZNSt3__116allocator_traitsINS_9allocatorINS_20__shared_ptr_emplaceI11SoundPlayerNS1_IS3_EEEEEEE8allocateB8ne180100ERS6_m, symObjAddr: 0x18284, symBinAddr: 0x10001B788, symSize: 0x2C }
  - { offset: 0x38754, size: 0x8, addend: 0x0, symName: __ZNSt3__19allocatorINS_20__shared_ptr_emplaceI11SoundPlayerNS0_IS2_EEEEEC2B8ne180100IS2_EERKNS0_IT_EE, symObjAddr: 0x182B0, symBinAddr: 0x10001B7B4, symSize: 0x30 }
  - { offset: 0x38791, size: 0x8, addend: 0x0, symName: __ZNSt3__116__non_trivial_ifILb1ENS_9allocatorINS_20__shared_ptr_emplaceI11SoundPlayerNS1_IS3_EEEEEEEC2B8ne180100Ev, symObjAddr: 0x182E0, symBinAddr: 0x10001B7E4, symSize: 0x14 }
  - { offset: 0x387BB, size: 0x8, addend: 0x0, symName: __ZNSt3__19allocatorINS_20__shared_ptr_emplaceI11SoundPlayerNS0_IS2_EEEEE8allocateB8ne180100Em, symObjAddr: 0x182F4, symBinAddr: 0x10001B7F8, symSize: 0x5C }
  - { offset: 0x387FA, size: 0x8, addend: 0x0, symName: __ZNSt3__116allocator_traitsINS_9allocatorINS_20__shared_ptr_emplaceI11SoundPlayerNS1_IS3_EEEEEEE8max_sizeB8ne180100IS6_vEEmRKS6_, symObjAddr: 0x18350, symBinAddr: 0x10001B854, symSize: 0x24 }
  - { offset: 0x38828, size: 0x8, addend: 0x0, symName: __ZNKSt3__19allocatorINS_20__shared_ptr_emplaceI11SoundPlayerNS0_IS2_EEEEE8max_sizeB8ne180100Ev, symObjAddr: 0x18374, symBinAddr: 0x10001B878, symSize: 0x20 }
  - { offset: 0x3884E, size: 0x8, addend: 0x0, symName: __ZNSt3__120__shared_ptr_emplaceI11SoundPlayerNS_9allocatorIS1_EEEC2B8ne180100IJRS1_ES3_Li0EEES3_DpOT_, symObjAddr: 0x18394, symBinAddr: 0x10001B898, symSize: 0xBC }
  - { offset: 0x388D1, size: 0x8, addend: 0x0, symName: __ZNSt3__120__shared_ptr_emplaceI11SoundPlayerNS_9allocatorIS1_EEE8_StorageC1B8ne180100EOS3_, symObjAddr: 0x18450, symBinAddr: 0x10001B954, symSize: 0x34 }
  - { offset: 0x3890A, size: 0x8, addend: 0x0, symName: __ZNSt3__120__shared_ptr_emplaceI11SoundPlayerNS_9allocatorIS1_EEE11__get_allocB8ne180100Ev, symObjAddr: 0x18484, symBinAddr: 0x10001B988, symSize: 0x28 }
  - { offset: 0x38936, size: 0x8, addend: 0x0, symName: __ZNSt3__116allocator_traitsINS_9allocatorI11SoundPlayerEEE9constructB8ne180100IS2_JRS2_EvEEvRS3_PT_DpOT0_, symObjAddr: 0x184AC, symBinAddr: 0x10001B9B0, symSize: 0x34 }
  - { offset: 0x3898D, size: 0x8, addend: 0x0, symName: __ZNSt3__120__shared_ptr_emplaceI11SoundPlayerNS_9allocatorIS1_EEE8_StorageD1B8ne180100Ev, symObjAddr: 0x184E0, symBinAddr: 0x10001B9E4, symSize: 0x2C }
  - { offset: 0x389B7, size: 0x8, addend: 0x0, symName: __ZNSt3__120__shared_ptr_emplaceI11SoundPlayerNS_9allocatorIS1_EEED1Ev, symObjAddr: 0x1850C, symBinAddr: 0x10001BA10, symSize: 0x2C }
  - { offset: 0x389E3, size: 0x8, addend: 0x0, symName: __ZNSt3__120__shared_ptr_emplaceI11SoundPlayerNS_9allocatorIS1_EEED0Ev, symObjAddr: 0x18538, symBinAddr: 0x10001BA3C, symSize: 0x30 }
  - { offset: 0x38A0F, size: 0x8, addend: 0x0, symName: __ZNSt3__120__shared_ptr_emplaceI11SoundPlayerNS_9allocatorIS1_EEE16__on_zero_sharedEv, symObjAddr: 0x18568, symBinAddr: 0x10001BA6C, symSize: 0x24 }
  - { offset: 0x38A35, size: 0x8, addend: 0x0, symName: __ZNSt3__120__shared_ptr_emplaceI11SoundPlayerNS_9allocatorIS1_EEE21__on_zero_shared_weakEv, symObjAddr: 0x1858C, symBinAddr: 0x10001BA90, symSize: 0x5C }
  - { offset: 0x38A76, size: 0x8, addend: 0x0, symName: __ZNSt3__120__shared_ptr_emplaceI11SoundPlayerNS_9allocatorIS1_EEE8_StorageC2B8ne180100EOS3_, symObjAddr: 0x185E8, symBinAddr: 0x10001BAEC, symSize: 0x30 }
  - { offset: 0x38AAF, size: 0x8, addend: 0x0, symName: __ZNSt3__120__shared_ptr_emplaceI11SoundPlayerNS_9allocatorIS1_EEE8_Storage11__get_allocB8ne180100Ev, symObjAddr: 0x18618, symBinAddr: 0x10001BB1C, symSize: 0x3C }
  - { offset: 0x38B02, size: 0x8, addend: 0x0, symName: __ZNSt3__117__compressed_pairINS_9allocatorI11SoundPlayerEES2_E16__get_first_baseB8ne180100EPS4_, symObjAddr: 0x18654, symBinAddr: 0x10001BB58, symSize: 0x14 }
  - { offset: 0x38B25, size: 0x8, addend: 0x0, symName: __ZNSt3__19allocatorI11SoundPlayerE9constructB8ne180100IS1_JRS1_EEEvPT_DpOT0_, symObjAddr: 0x18668, symBinAddr: 0x10001BB6C, symSize: 0x34 }
  - { offset: 0x38B7B, size: 0x8, addend: 0x0, symName: __ZNSt3__120__shared_ptr_emplaceI11SoundPlayerNS_9allocatorIS1_EEE8_StorageD2B8ne180100Ev, symObjAddr: 0x1869C, symBinAddr: 0x10001BBA0, symSize: 0x2C }
  - { offset: 0x38BA5, size: 0x8, addend: 0x0, symName: __ZNSt3__120__shared_ptr_emplaceI11SoundPlayerNS_9allocatorIS1_EEED2Ev, symObjAddr: 0x186C8, symBinAddr: 0x10001BBCC, symSize: 0x48 }
  - { offset: 0x38BD1, size: 0x8, addend: 0x0, symName: __ZNSt3__120__shared_ptr_emplaceI11SoundPlayerNS_9allocatorIS1_EEE21__on_zero_shared_implB8ne180100IS3_Li0EEEvv, symObjAddr: 0x18710, symBinAddr: 0x10001BC14, symSize: 0x44 }
  - { offset: 0x38C21, size: 0x8, addend: 0x0, symName: __ZNSt3__116allocator_traitsINS_9allocatorI11SoundPlayerEEE7destroyB8ne180100IS2_vEEvRS3_PT_, symObjAddr: 0x18754, symBinAddr: 0x10001BC58, symSize: 0x2C }
  - { offset: 0x38C5E, size: 0x8, addend: 0x0, symName: __ZNSt3__19allocatorI11SoundPlayerE7destroyB8ne180100EPS1_, symObjAddr: 0x18780, symBinAddr: 0x10001BC84, symSize: 0x28 }
  - { offset: 0x38C92, size: 0x8, addend: 0x0, symName: __ZNSt3__116allocator_traitsINS_9allocatorINS_20__shared_ptr_emplaceI11SoundPlayerNS1_IS3_EEEEEEE10deallocateB8ne180100ERS6_PS5_m, symObjAddr: 0x187A8, symBinAddr: 0x10001BCAC, symSize: 0x34 }
  - { offset: 0x38CD4, size: 0x8, addend: 0x0, symName: __ZNSt3__114pointer_traitsIPNS_20__shared_ptr_emplaceI11SoundPlayerNS_9allocatorIS2_EEEEE10pointer_toB8ne180100ERS5_, symObjAddr: 0x187DC, symBinAddr: 0x10001BCE0, symSize: 0x14 }
  - { offset: 0x38CF7, size: 0x8, addend: 0x0, symName: __ZNSt3__19allocatorINS_20__shared_ptr_emplaceI11SoundPlayerNS0_IS2_EEEEE10deallocateB8ne180100EPS4_m, symObjAddr: 0x187F0, symBinAddr: 0x10001BCF4, symSize: 0x44 }
  - { offset: 0x38D39, size: 0x8, addend: 0x0, symName: __ZNSt3__110shared_ptrI11SoundPlayerEC1B8ne180100Ev, symObjAddr: 0x18834, symBinAddr: 0x10001BD38, symSize: 0x2C }
  - { offset: 0x38D63, size: 0x8, addend: 0x0, symName: __ZNSt3__110shared_ptrI11SoundPlayerE18__enable_weak_thisB8ne180100Ez, symObjAddr: 0x18860, symBinAddr: 0x10001BD64, symSize: 0x10 }
  - { offset: 0x38D8A, size: 0x8, addend: 0x0, symName: __ZNSt3__110shared_ptrI11SoundPlayerEC2B8ne180100Ev, symObjAddr: 0x18870, symBinAddr: 0x10001BD74, symSize: 0x1C }
  - { offset: 0x38DB4, size: 0x8, addend: 0x0, symName: __ZNSt3__120__shared_ptr_emplaceI11SoundPlayerNS_9allocatorIS1_EEE8_Storage10__get_elemB8ne180100Ev, symObjAddr: 0x1888C, symBinAddr: 0x10001BD90, symSize: 0x3C }
  - { offset: 0x38E07, size: 0x8, addend: 0x0, symName: __ZNSt3__117__compressed_pairINS_9allocatorI11SoundPlayerEES2_E17__get_second_baseB8ne180100EPS4_, symObjAddr: 0x188C8, symBinAddr: 0x10001BDCC, symSize: 0x14 }
  - { offset: 0x38E2A, size: 0x8, addend: 0x0, symName: __ZNSt3__118__allocation_guardINS_9allocatorINS_20__shared_ptr_emplaceI11SoundPlayerNS1_IS3_EEEEEEED2B8ne180100Ev, symObjAddr: 0x188DC, symBinAddr: 0x10001BDE0, symSize: 0x2C }
  - { offset: 0x38E54, size: 0x8, addend: 0x0, symName: __ZNSt3__118__allocation_guardINS_9allocatorINS_20__shared_ptr_emplaceI11SoundPlayerNS1_IS3_EEEEEEE9__destroyB8ne180100Ev, symObjAddr: 0x18908, symBinAddr: 0x10001BE0C, symSize: 0x4C }
  - { offset: 0x38E7A, size: 0x8, addend: 0x0, symName: __ZNSt3__19allocatorI11SoundPlayerEC2B8ne180100Ev, symObjAddr: 0x18954, symBinAddr: 0x10001BE58, symSize: 0x2C }
  - { offset: 0x38EA4, size: 0x8, addend: 0x0, symName: __ZNSt3__116__non_trivial_ifILb1ENS_9allocatorI11SoundPlayerEEEC2B8ne180100Ev, symObjAddr: 0x18980, symBinAddr: 0x10001BE84, symSize: 0x14 }
  - { offset: 0x38ECE, size: 0x8, addend: 0x0, symName: __ZNSt3__110shared_ptrI11SoundPlayerED2B8ne180100Ev, symObjAddr: 0x18994, symBinAddr: 0x10001BE98, symSize: 0x54 }
  - { offset: 0x38EF8, size: 0x8, addend: 0x0, symName: __ZNSt3__15dequeINS_10shared_ptrI5EventEENS_9allocatorIS3_EEEC2B8ne180100Ev, symObjAddr: 0x189E8, symBinAddr: 0x10001BEEC, symSize: 0x5C }
  - { offset: 0x38F22, size: 0x8, addend: 0x0, symName: __ZNSt3__114__split_bufferIPNS_10shared_ptrI5EventEENS_9allocatorIS4_EEEC1B8ne180100Ev, symObjAddr: 0x18A44, symBinAddr: 0x10001BF48, symSize: 0x2C }
  - { offset: 0x38F4C, size: 0x8, addend: 0x0, symName: __ZNSt3__117__compressed_pairImNS_9allocatorINS_10shared_ptrI5EventEEEEEC1B8ne180100IiNS_18__default_init_tagEEEOT_OT0_, symObjAddr: 0x18A70, symBinAddr: 0x10001BF74, symSize: 0x3C }
  - { offset: 0x38FA4, size: 0x8, addend: 0x0, symName: __ZNKSt3__15dequeINS_10shared_ptrI5EventEENS_9allocatorIS3_EEE14__annotate_newB8ne180100Em, symObjAddr: 0x18AAC, symBinAddr: 0x10001BFB0, symSize: 0x14 }
  - { offset: 0x38FD9, size: 0x8, addend: 0x0, symName: __ZNSt3__114__split_bufferIPNS_10shared_ptrI5EventEENS_9allocatorIS4_EEEC2B8ne180100Ev, symObjAddr: 0x18AC0, symBinAddr: 0x10001BFC4, symSize: 0x50 }
  - { offset: 0x39003, size: 0x8, addend: 0x0, symName: __ZNSt3__117__compressed_pairIPPNS_10shared_ptrI5EventEENS_9allocatorIS4_EEEC1B8ne180100IDnNS_18__default_init_tagEEEOT_OT0_, symObjAddr: 0x18B10, symBinAddr: 0x10001C014, symSize: 0x3C }
  - { offset: 0x3905B, size: 0x8, addend: 0x0, symName: __ZNSt3__117__compressed_pairIPPNS_10shared_ptrI5EventEENS_9allocatorIS4_EEEC2B8ne180100IDnNS_18__default_init_tagEEEOT_OT0_, symObjAddr: 0x18B4C, symBinAddr: 0x10001C050, symSize: 0x40 }
  - { offset: 0x390B3, size: 0x8, addend: 0x0, symName: __ZNSt3__122__compressed_pair_elemIPPNS_10shared_ptrI5EventEELi0ELb0EEC2B8ne180100IDnvEEOT_, symObjAddr: 0x18B8C, symBinAddr: 0x10001C090, symSize: 0x1C }
  - { offset: 0x390F5, size: 0x8, addend: 0x0, symName: __ZNSt3__122__compressed_pair_elemINS_9allocatorIPNS_10shared_ptrI5EventEEEELi1ELb1EEC2B8ne180100ENS_18__default_init_tagE, symObjAddr: 0x18BA8, symBinAddr: 0x10001C0AC, symSize: 0x2C }
  - { offset: 0x39129, size: 0x8, addend: 0x0, symName: __ZNSt3__19allocatorIPNS_10shared_ptrI5EventEEEC2B8ne180100Ev, symObjAddr: 0x18BD4, symBinAddr: 0x10001C0D8, symSize: 0x2C }
  - { offset: 0x39153, size: 0x8, addend: 0x0, symName: __ZNSt3__116__non_trivial_ifILb1ENS_9allocatorIPNS_10shared_ptrI5EventEEEEEC2B8ne180100Ev, symObjAddr: 0x18C00, symBinAddr: 0x10001C104, symSize: 0x14 }
  - { offset: 0x3917D, size: 0x8, addend: 0x0, symName: __ZNSt3__117__compressed_pairImNS_9allocatorINS_10shared_ptrI5EventEEEEEC2B8ne180100IiNS_18__default_init_tagEEEOT_OT0_, symObjAddr: 0x18C14, symBinAddr: 0x10001C118, symSize: 0x40 }
  - { offset: 0x391D5, size: 0x8, addend: 0x0, symName: __ZNSt3__122__compressed_pair_elemINS_9allocatorINS_10shared_ptrI5EventEEEELi1ELb1EEC2B8ne180100ENS_18__default_init_tagE, symObjAddr: 0x18C54, symBinAddr: 0x10001C158, symSize: 0x2C }
  - { offset: 0x39209, size: 0x8, addend: 0x0, symName: __ZNSt3__19allocatorINS_10shared_ptrI5EventEEEC2B8ne180100Ev, symObjAddr: 0x18C80, symBinAddr: 0x10001C184, symSize: 0x2C }
  - { offset: 0x39233, size: 0x8, addend: 0x0, symName: __ZNSt3__116__non_trivial_ifILb1ENS_9allocatorINS_10shared_ptrI5EventEEEEEC2B8ne180100Ev, symObjAddr: 0x18CAC, symBinAddr: 0x10001C1B0, symSize: 0x14 }
  - { offset: 0x3925D, size: 0x8, addend: 0x0, symName: __ZNSt3__15dequeINS_10shared_ptrI5EventEENS_9allocatorIS3_EEED2B8ne180100Ev, symObjAddr: 0x18CC0, symBinAddr: 0x10001C1C4, symSize: 0xA4 }
  - { offset: 0x392B3, size: 0x8, addend: 0x0, symName: __ZNSt3__15dequeINS_10shared_ptrI5EventEENS_9allocatorIS3_EEE5clearEv, symObjAddr: 0x18D64, symBinAddr: 0x10001C268, symSize: 0x194 }
  - { offset: 0x3930E, size: 0x8, addend: 0x0, symName: __ZNKSt3__15dequeINS_10shared_ptrI5EventEENS_9allocatorIS3_EEE17__annotate_deleteB8ne180100Ev, symObjAddr: 0x18EF8, symBinAddr: 0x10001C3FC, symSize: 0x10 }
  - { offset: 0x39334, size: 0x8, addend: 0x0, symName: __ZNSt3__114__split_bufferIPNS_10shared_ptrI5EventEENS_9allocatorIS4_EEE5beginB8ne180100Ev, symObjAddr: 0x18F08, symBinAddr: 0x10001C40C, symSize: 0x18 }
  - { offset: 0x3935A, size: 0x8, addend: 0x0, symName: __ZNSt3__114__split_bufferIPNS_10shared_ptrI5EventEENS_9allocatorIS4_EEE3endB8ne180100Ev, symObjAddr: 0x18F20, symBinAddr: 0x10001C424, symSize: 0x18 }
  - { offset: 0x39380, size: 0x8, addend: 0x0, symName: __ZNSt3__116allocator_traitsINS_9allocatorINS_10shared_ptrI5EventEEEEE10deallocateB8ne180100ERS5_PS4_m, symObjAddr: 0x18F38, symBinAddr: 0x10001C43C, symSize: 0x34 }
  - { offset: 0x393C2, size: 0x8, addend: 0x0, symName: __ZNSt3__15dequeINS_10shared_ptrI5EventEENS_9allocatorIS3_EEE7__allocB8ne180100Ev, symObjAddr: 0x18F6C, symBinAddr: 0x10001C470, symSize: 0x28 }
  - { offset: 0x393E8, size: 0x8, addend: 0x0, symName: __ZNSt3__114__split_bufferIPNS_10shared_ptrI5EventEENS_9allocatorIS4_EEED1Ev, symObjAddr: 0x18F94, symBinAddr: 0x10001C498, symSize: 0x2C }
  - { offset: 0x39414, size: 0x8, addend: 0x0, symName: __ZNSt3__15dequeINS_10shared_ptrI5EventEENS_9allocatorIS3_EEE5beginB8ne180100Ev, symObjAddr: 0x18FC0, symBinAddr: 0x10001C4C4, symSize: 0xB8 }
  - { offset: 0x39449, size: 0x8, addend: 0x0, symName: __ZNSt3__15dequeINS_10shared_ptrI5EventEENS_9allocatorIS3_EEE3endB8ne180100Ev, symObjAddr: 0x19078, symBinAddr: 0x10001C57C, symSize: 0xBC }
  - { offset: 0x3948D, size: 0x8, addend: 0x0, symName: __ZNSt3__116allocator_traitsINS_9allocatorINS_10shared_ptrI5EventEEEEE7destroyB8ne180100IS4_vEEvRS5_PT_, symObjAddr: 0x19168, symBinAddr: 0x10001C66C, symSize: 0x2C }
  - { offset: 0x394CA, size: 0x8, addend: 0x0, symName: __ZNKSt3__116__deque_iteratorINS_10shared_ptrI5EventEEPS3_RS3_PS4_lLl256EEdeB8ne180100Ev, symObjAddr: 0x19194, symBinAddr: 0x10001C698, symSize: 0x18 }
  - { offset: 0x394F0, size: 0x8, addend: 0x0, symName: __ZNSt3__116__deque_iteratorINS_10shared_ptrI5EventEEPS3_RS3_PS4_lLl256EEppB8ne180100Ev, symObjAddr: 0x191AC, symBinAddr: 0x10001C6B0, symSize: 0x70 }
  - { offset: 0x39516, size: 0x8, addend: 0x0, symName: __ZNSt3__15dequeINS_10shared_ptrI5EventEENS_9allocatorIS3_EEE6__sizeB8ne180100Ev, symObjAddr: 0x1921C, symBinAddr: 0x10001C720, symSize: 0x28 }
  - { offset: 0x3953C, size: 0x8, addend: 0x0, symName: __ZNKSt3__114__split_bufferIPNS_10shared_ptrI5EventEENS_9allocatorIS4_EEE4sizeB8ne180100Ev, symObjAddr: 0x19244, symBinAddr: 0x10001C748, symSize: 0x28 }
  - { offset: 0x39562, size: 0x8, addend: 0x0, symName: __ZNSt3__114__split_bufferIPNS_10shared_ptrI5EventEENS_9allocatorIS4_EEE5frontB8ne180100Ev, symObjAddr: 0x1926C, symBinAddr: 0x10001C770, symSize: 0x18 }
  - { offset: 0x39588, size: 0x8, addend: 0x0, symName: __ZNSt3__114__split_bufferIPNS_10shared_ptrI5EventEENS_9allocatorIS4_EEE9pop_frontB8ne180100Ev, symObjAddr: 0x19284, symBinAddr: 0x10001C788, symSize: 0x2C }
  - { offset: 0x395AE, size: 0x8, addend: 0x0, symName: __ZNKSt3__114__split_bufferIPNS_10shared_ptrI5EventEENS_9allocatorIS4_EEE5emptyB8ne180100Ev, symObjAddr: 0x192B0, symBinAddr: 0x10001C7B4, symSize: 0x28 }
  - { offset: 0x395D4, size: 0x8, addend: 0x0, symName: __ZNSt3__116__deque_iteratorINS_10shared_ptrI5EventEEPS3_RS3_PS4_lLl256EEC1B8ne180100ES6_S4_, symObjAddr: 0x192D8, symBinAddr: 0x10001C7DC, symSize: 0x3C }
  - { offset: 0x3961C, size: 0x8, addend: 0x0, symName: __ZNSt3__116__deque_iteratorINS_10shared_ptrI5EventEEPS3_RS3_PS4_lLl256EEC2B8ne180100ES6_S4_, symObjAddr: 0x19314, symBinAddr: 0x10001C818, symSize: 0x2C }
  - { offset: 0x39664, size: 0x8, addend: 0x0, symName: __ZNKSt3__15dequeINS_10shared_ptrI5EventEENS_9allocatorIS3_EEE4sizeB8ne180100Ev, symObjAddr: 0x19340, symBinAddr: 0x10001C844, symSize: 0x28 }
  - { offset: 0x3968A, size: 0x8, addend: 0x0, symName: __ZNKSt3__15dequeINS_10shared_ptrI5EventEENS_9allocatorIS3_EEE6__sizeB8ne180100Ev, symObjAddr: 0x19368, symBinAddr: 0x10001C86C, symSize: 0x28 }
  - { offset: 0x396B0, size: 0x8, addend: 0x0, symName: __ZNKSt3__117__compressed_pairImNS_9allocatorINS_10shared_ptrI5EventEEEEE5firstB8ne180100Ev, symObjAddr: 0x19390, symBinAddr: 0x10001C894, symSize: 0x24 }
  - { offset: 0x396D6, size: 0x8, addend: 0x0, symName: __ZNSt3__19allocatorINS_10shared_ptrI5EventEEE7destroyB8ne180100EPS3_, symObjAddr: 0x193E4, symBinAddr: 0x10001C8E8, symSize: 0x28 }
  - { offset: 0x3970A, size: 0x8, addend: 0x0, symName: __ZNSt3__117__compressed_pairImNS_9allocatorINS_10shared_ptrI5EventEEEEE5firstB8ne180100Ev, symObjAddr: 0x1940C, symBinAddr: 0x10001C910, symSize: 0x24 }
  - { offset: 0x39730, size: 0x8, addend: 0x0, symName: __ZNSt3__114__split_bufferIPNS_10shared_ptrI5EventEENS_9allocatorIS4_EEE19__destruct_at_beginB8ne180100EPS4_, symObjAddr: 0x19430, symBinAddr: 0x10001C934, symSize: 0x2C }
  - { offset: 0x39764, size: 0x8, addend: 0x0, symName: __ZNSt3__114__split_bufferIPNS_10shared_ptrI5EventEENS_9allocatorIS4_EEE19__destruct_at_beginEPS4_NS_17integral_constantIbLb1EEE, symObjAddr: 0x1945C, symBinAddr: 0x10001C960, symSize: 0x20 }
  - { offset: 0x397A4, size: 0x8, addend: 0x0, symName: __ZNSt3__19allocatorINS_10shared_ptrI5EventEEE10deallocateB8ne180100EPS3_m, symObjAddr: 0x1947C, symBinAddr: 0x10001C980, symSize: 0x40 }
  - { offset: 0x397E6, size: 0x8, addend: 0x0, symName: __ZNSt3__117__compressed_pairImNS_9allocatorINS_10shared_ptrI5EventEEEEE6secondB8ne180100Ev, symObjAddr: 0x194BC, symBinAddr: 0x10001C9C0, symSize: 0x24 }
  - { offset: 0x3980C, size: 0x8, addend: 0x0, symName: __ZNSt3__122__compressed_pair_elemINS_9allocatorINS_10shared_ptrI5EventEEEELi1ELb1EE5__getB8ne180100Ev, symObjAddr: 0x194E0, symBinAddr: 0x10001C9E4, symSize: 0x14 }
  - { offset: 0x39832, size: 0x8, addend: 0x0, symName: __ZNSt3__114__split_bufferIPNS_10shared_ptrI5EventEENS_9allocatorIS4_EEED2Ev, symObjAddr: 0x194F4, symBinAddr: 0x10001C9F8, symSize: 0x8C }
  - { offset: 0x3985E, size: 0x8, addend: 0x0, symName: __ZNSt3__114__split_bufferIPNS_10shared_ptrI5EventEENS_9allocatorIS4_EEE5clearB8ne180100Ev, symObjAddr: 0x19580, symBinAddr: 0x10001CA84, symSize: 0x28 }
  - { offset: 0x39884, size: 0x8, addend: 0x0, symName: __ZNSt3__116allocator_traitsINS_9allocatorIPNS_10shared_ptrI5EventEEEEE10deallocateB8ne180100ERS6_PS5_m, symObjAddr: 0x195A8, symBinAddr: 0x10001CAAC, symSize: 0x34 }
  - { offset: 0x398C6, size: 0x8, addend: 0x0, symName: __ZNSt3__114__split_bufferIPNS_10shared_ptrI5EventEENS_9allocatorIS4_EEE7__allocB8ne180100Ev, symObjAddr: 0x195DC, symBinAddr: 0x10001CAE0, symSize: 0x28 }
  - { offset: 0x398EC, size: 0x8, addend: 0x0, symName: __ZNKSt3__114__split_bufferIPNS_10shared_ptrI5EventEENS_9allocatorIS4_EEE8capacityB8ne180100Ev, symObjAddr: 0x19604, symBinAddr: 0x10001CB08, symSize: 0x40 }
  - { offset: 0x39912, size: 0x8, addend: 0x0, symName: __ZNSt3__114__split_bufferIPNS_10shared_ptrI5EventEENS_9allocatorIS4_EEE17__destruct_at_endB8ne180100EPS4_, symObjAddr: 0x19644, symBinAddr: 0x10001CB48, symSize: 0x2C }
  - { offset: 0x39946, size: 0x8, addend: 0x0, symName: __ZNSt3__114__split_bufferIPNS_10shared_ptrI5EventEENS_9allocatorIS4_EEE17__destruct_at_endB8ne180100EPS4_NS_17integral_constantIbLb0EEE, symObjAddr: 0x19670, symBinAddr: 0x10001CB74, symSize: 0x80 }
  - { offset: 0x39986, size: 0x8, addend: 0x0, symName: __ZNSt3__116allocator_traitsINS_9allocatorIPNS_10shared_ptrI5EventEEEEE7destroyB8ne180100IS5_vEEvRS6_PT_, symObjAddr: 0x196F0, symBinAddr: 0x10001CBF4, symSize: 0x2C }
  - { offset: 0x399C3, size: 0x8, addend: 0x0, symName: __ZNSt3__19allocatorIPNS_10shared_ptrI5EventEEE7destroyB8ne180100EPS4_, symObjAddr: 0x19730, symBinAddr: 0x10001CC34, symSize: 0x14 }
  - { offset: 0x399F7, size: 0x8, addend: 0x0, symName: __ZNSt3__19allocatorIPNS_10shared_ptrI5EventEEE10deallocateB8ne180100EPS4_m, symObjAddr: 0x19744, symBinAddr: 0x10001CC48, symSize: 0x40 }
  - { offset: 0x39A39, size: 0x8, addend: 0x0, symName: __ZNSt3__117__compressed_pairIPPNS_10shared_ptrI5EventEENS_9allocatorIS4_EEE6secondB8ne180100Ev, symObjAddr: 0x19784, symBinAddr: 0x10001CC88, symSize: 0x24 }
  - { offset: 0x39A5F, size: 0x8, addend: 0x0, symName: __ZNSt3__122__compressed_pair_elemINS_9allocatorIPNS_10shared_ptrI5EventEEEELi1ELb1EE5__getB8ne180100Ev, symObjAddr: 0x197A8, symBinAddr: 0x10001CCAC, symSize: 0x14 }
  - { offset: 0x39A85, size: 0x8, addend: 0x0, symName: __ZNKSt3__114__split_bufferIPNS_10shared_ptrI5EventEENS_9allocatorIS4_EEE9__end_capB8ne180100Ev, symObjAddr: 0x197BC, symBinAddr: 0x10001CCC0, symSize: 0x28 }
  - { offset: 0x39AAB, size: 0x8, addend: 0x0, symName: __ZNKSt3__117__compressed_pairIPPNS_10shared_ptrI5EventEENS_9allocatorIS4_EEE5firstB8ne180100Ev, symObjAddr: 0x197E4, symBinAddr: 0x10001CCE8, symSize: 0x24 }
  - { offset: 0x39AD1, size: 0x8, addend: 0x0, symName: __ZNKSt3__122__compressed_pair_elemIPPNS_10shared_ptrI5EventEELi0ELb0EE5__getB8ne180100Ev, symObjAddr: 0x19808, symBinAddr: 0x10001CD0C, symSize: 0x14 }
  - { offset: 0x39AF7, size: 0x8, addend: 0x0, symName: __ZNSt3__110shared_ptrI5EventED2B8ne180100Ev, symObjAddr: 0x1981C, symBinAddr: 0x10001CD20, symSize: 0x54 }
  - { offset: 0x39B21, size: 0x8, addend: 0x0, symName: __ZNKSt3__15dequeINS_10shared_ptrI5EventEENS_9allocatorIS3_EEE12__back_spareB8ne180100Ev, symObjAddr: 0x19870, symBinAddr: 0x10001CD74, symSize: 0x54 }
  - { offset: 0x39B47, size: 0x8, addend: 0x0, symName: __ZNSt3__15dequeINS_10shared_ptrI5EventEENS_9allocatorIS3_EEE19__add_back_capacityEv, symObjAddr: 0x198C4, symBinAddr: 0x10001CDC8, symSize: 0x34C }
  - { offset: 0x39BFC, size: 0x8, addend: 0x0, symName: __ZNKSt3__15dequeINS_10shared_ptrI5EventEENS_9allocatorIS3_EEE24__annotate_increase_backB8ne180100Em, symObjAddr: 0x19C10, symBinAddr: 0x10001D114, symSize: 0x14 }
  - { offset: 0x39C31, size: 0x8, addend: 0x0, symName: __ZNSt3__116allocator_traitsINS_9allocatorINS_10shared_ptrI5EventEEEEE9constructB8ne180100IS4_JS4_EvEEvRS5_PT_DpOT0_, symObjAddr: 0x19C24, symBinAddr: 0x10001D128, symSize: 0x34 }
  - { offset: 0x39C88, size: 0x8, addend: 0x0, symName: __ZNKSt3__15dequeINS_10shared_ptrI5EventEENS_9allocatorIS3_EEE10__capacityB8ne180100Ev, symObjAddr: 0x19C58, symBinAddr: 0x10001D15C, symSize: 0x60 }
  - { offset: 0x39CAE, size: 0x8, addend: 0x0, symName: __ZNKSt3__15dequeINS_10shared_ptrI5EventEENS_9allocatorIS3_EEE13__front_spareB8ne180100Ev, symObjAddr: 0x19CB8, symBinAddr: 0x10001D1BC, symSize: 0x18 }
  - { offset: 0x39CD4, size: 0x8, addend: 0x0, symName: __ZNSt3__114__split_bufferIPNS_10shared_ptrI5EventEENS_9allocatorIS4_EEE9push_backB8ne180100ERKS4_, symObjAddr: 0x19CD0, symBinAddr: 0x10001D1D4, symSize: 0x260 }
  - { offset: 0x39D4C, size: 0x8, addend: 0x0, symName: __ZNKSt3__114__split_bufferIPNS_10shared_ptrI5EventEENS_9allocatorIS4_EEE12__back_spareB8ne180100Ev, symObjAddr: 0x19F30, symBinAddr: 0x10001D434, symSize: 0x40 }
  - { offset: 0x39D72, size: 0x8, addend: 0x0, symName: __ZNSt3__114__split_bufferIPNS_10shared_ptrI5EventEENS_9allocatorIS4_EEE9push_backEOS4_, symObjAddr: 0x19F70, symBinAddr: 0x10001D474, symSize: 0x260 }
  - { offset: 0x39DEA, size: 0x8, addend: 0x0, symName: __ZNSt3__116allocator_traitsINS_9allocatorINS_10shared_ptrI5EventEEEEE8allocateB8ne180100ERS5_m, symObjAddr: 0x1A1D0, symBinAddr: 0x10001D6D4, symSize: 0x2C }
  - { offset: 0x39E1D, size: 0x8, addend: 0x0, symName: __ZNSt3__114__split_bufferIPNS_10shared_ptrI5EventEENS_9allocatorIS4_EEE10push_frontEOS4_, symObjAddr: 0x1A1FC, symBinAddr: 0x10001D700, symSize: 0x25C }
  - { offset: 0x39E95, size: 0x8, addend: 0x0, symName: __ZNKSt3__15dequeINS_10shared_ptrI5EventEENS_9allocatorIS3_EEE22__annotate_whole_blockB8ne180100EmNS6_22__asan_annotation_typeE, symObjAddr: 0x1A458, symBinAddr: 0x10001D95C, symSize: 0x18 }
  - { offset: 0x39ED9, size: 0x8, addend: 0x0, symName: __ZNSt3__114__split_bufferIPNS_10shared_ptrI5EventEERNS_9allocatorIS4_EEEC1EmmS7_, symObjAddr: 0x1A470, symBinAddr: 0x10001D974, symSize: 0x44 }
  - { offset: 0x39F35, size: 0x8, addend: 0x0, symName: __ZNSt3__122__allocator_destructorINS_9allocatorINS_10shared_ptrI5EventEEEEEC1B8ne180100ERS5_m, symObjAddr: 0x1A4B4, symBinAddr: 0x10001D9B8, symSize: 0x3C }
  - { offset: 0x3A00B, size: 0x8, addend: 0x0, symName: __ZNSt3__110unique_ptrIPNS_10shared_ptrI5EventEENS_22__allocator_destructorINS_9allocatorIS3_EEEEEC1B8ne180100ILb1EvEES4_NS_16__dependent_typeINS_27__unique_ptr_deleter_sfinaeIS8_EEXT_EE20__good_rval_ref_typeE, symObjAddr: 0x1A4F0, symBinAddr: 0x10001D9F4, symSize: 0x3C }
  - { offset: 0x3A05C, size: 0x8, addend: 0x0, symName: __ZNSt3__114__split_bufferIPNS_10shared_ptrI5EventEERNS_9allocatorIS4_EEE9push_backEOS4_, symObjAddr: 0x1A52C, symBinAddr: 0x10001DA30, symSize: 0x260 }
  - { offset: 0x3A0D4, size: 0x8, addend: 0x0, symName: __ZNKSt3__110unique_ptrIPNS_10shared_ptrI5EventEENS_22__allocator_destructorINS_9allocatorIS3_EEEEE3getB8ne180100Ev, symObjAddr: 0x1A78C, symBinAddr: 0x10001DC90, symSize: 0x28 }
  - { offset: 0x3A0FA, size: 0x8, addend: 0x0, symName: __ZNSt3__110unique_ptrIPNS_10shared_ptrI5EventEENS_22__allocator_destructorINS_9allocatorIS3_EEEEE7releaseB8ne180100Ev, symObjAddr: 0x1A7B4, symBinAddr: 0x10001DCB8, symSize: 0x44 }
  - { offset: 0x3A12F, size: 0x8, addend: 0x0, symName: __ZNSt3__114__split_bufferIPNS_10shared_ptrI5EventEERNS_9allocatorIS4_EEE10push_frontERKS4_, symObjAddr: 0x1A7F8, symBinAddr: 0x10001DCFC, symSize: 0x25C }
  - { offset: 0x3A1A7, size: 0x8, addend: 0x0, symName: __ZNSt3__114__split_bufferIPNS_10shared_ptrI5EventEENS_9allocatorIS4_EEE9__end_capB8ne180100Ev, symObjAddr: 0x1AA90, symBinAddr: 0x10001DF94, symSize: 0x28 }
  - { offset: 0x3A1CD, size: 0x8, addend: 0x0, symName: __ZNSt3__114__split_bufferIPNS_10shared_ptrI5EventEERNS_9allocatorIS4_EEE9__end_capB8ne180100Ev, symObjAddr: 0x1AAB8, symBinAddr: 0x10001DFBC, symSize: 0x28 }
  - { offset: 0x3A1F3, size: 0x8, addend: 0x0, symName: __ZNSt3__110unique_ptrIPNS_10shared_ptrI5EventEENS_22__allocator_destructorINS_9allocatorIS3_EEEEED1B8ne180100Ev, symObjAddr: 0x1AAE0, symBinAddr: 0x10001DFE4, symSize: 0x2C }
  - { offset: 0x3A21D, size: 0x8, addend: 0x0, symName: __ZNSt3__114__split_bufferIPNS_10shared_ptrI5EventEERNS_9allocatorIS4_EEED1Ev, symObjAddr: 0x1AB0C, symBinAddr: 0x10001E010, symSize: 0x2C }
  - { offset: 0x3A249, size: 0x8, addend: 0x0, symName: __ZNSt3__114__split_bufferIPNS_10shared_ptrI5EventEERNS_9allocatorIS4_EEE18__construct_at_endINS_13move_iteratorIPS4_EELi0EEEvT_SD_, symObjAddr: 0x1AB78, symBinAddr: 0x10001E07C, symSize: 0x60 }
  - { offset: 0x3A29C, size: 0x8, addend: 0x0, symName: __ZNSt3__113move_iteratorIPPNS_10shared_ptrI5EventEEEC1B8ne180100ES5_, symObjAddr: 0x1ABD8, symBinAddr: 0x10001E0DC, symSize: 0x34 }
  - { offset: 0x3A2D4, size: 0x8, addend: 0x0, symName: __ZNSt3__116allocator_traitsINS_9allocatorIPNS_10shared_ptrI5EventEEEEE9constructB8ne180100IS5_JRKS5_EvEEvRS6_PT_DpOT0_, symObjAddr: 0x1AC0C, symBinAddr: 0x10001E110, symSize: 0x34 }
  - { offset: 0x3A348, size: 0x8, addend: 0x0, symName: __ZNKSt3__114__move_trivialclB8ne180100IPNS_10shared_ptrI5EventEES5_Li0EEENS_4pairIPT_PT0_EES8_S8_SA_, symObjAddr: 0x1ADDC, symBinAddr: 0x10001E2E0, symSize: 0x48 }
  - { offset: 0x3A3B6, size: 0x8, addend: 0x0, symName: __ZNSt3__14pairIPPNS_10shared_ptrI5EventEES5_EC1B8ne180100IRS5_S5_Li0EEEOT_OT0_, symObjAddr: 0x1B004, symBinAddr: 0x10001E508, symSize: 0x3C }
  - { offset: 0x3A414, size: 0x8, addend: 0x0, symName: __ZNSt3__14pairIPPNS_10shared_ptrI5EventEES5_EC2B8ne180100IRS5_S5_Li0EEEOT_OT0_, symObjAddr: 0x1B040, symBinAddr: 0x10001E544, symSize: 0x34 }
  - { offset: 0x3A472, size: 0x8, addend: 0x0, symName: __ZNSt3__118__unwrap_iter_implIPPNS_10shared_ptrI5EventEELb1EE8__unwrapB8ne180100ES5_, symObjAddr: 0x1B074, symBinAddr: 0x10001E578, symSize: 0x24 }
  - { offset: 0x3A495, size: 0x8, addend: 0x0, symName: __ZNSt3__14pairIPPNS_10shared_ptrI5EventEES5_EC1B8ne180100IS5_S5_Li0EEEOT_OT0_, symObjAddr: 0x1B098, symBinAddr: 0x10001E59C, symSize: 0x3C }
  - { offset: 0x3A4F3, size: 0x8, addend: 0x0, symName: __ZNSt3__14pairIPPNS_10shared_ptrI5EventEES5_EC2B8ne180100IS5_S5_Li0EEEOT_OT0_, symObjAddr: 0x1B0D4, symBinAddr: 0x10001E5D8, symSize: 0x34 }
  - { offset: 0x3A551, size: 0x8, addend: 0x0, symName: __ZNSt3__118__unwrap_iter_implIPPNS_10shared_ptrI5EventEELb1EE8__rewrapB8ne180100ES5_S5_, symObjAddr: 0x1B108, symBinAddr: 0x10001E60C, symSize: 0x50 }
  - { offset: 0x3A582, size: 0x8, addend: 0x0, symName: __ZNSt3__114__split_bufferIPNS_10shared_ptrI5EventEERNS_9allocatorIS4_EEE28__construct_at_end_with_sizeINS_13move_iteratorIPS4_EEEEvT_m, symObjAddr: 0x1B158, symBinAddr: 0x10001E65C, symSize: 0xDC }
  - { offset: 0x3A5EA, size: 0x8, addend: 0x0, symName: __ZNSt3__114__split_bufferIPNS_10shared_ptrI5EventEERNS_9allocatorIS4_EEE21_ConstructTransactionC1B8ne180100EPPS4_m, symObjAddr: 0x1B270, symBinAddr: 0x10001E774, symSize: 0x3C }
  - { offset: 0x3A630, size: 0x8, addend: 0x0, symName: __ZNSt3__116allocator_traitsINS_9allocatorIPNS_10shared_ptrI5EventEEEEE9constructB8ne180100IS5_JS5_EvEEvRS6_PT_DpOT0_, symObjAddr: 0x1B2AC, symBinAddr: 0x10001E7B0, symSize: 0x34 }
  - { offset: 0x3A687, size: 0x8, addend: 0x0, symName: __ZNSt3__114__split_bufferIPNS_10shared_ptrI5EventEERNS_9allocatorIS4_EEE7__allocB8ne180100Ev, symObjAddr: 0x1B2E0, symBinAddr: 0x10001E7E4, symSize: 0x28 }
  - { offset: 0x3A6AD, size: 0x8, addend: 0x0, symName: __ZNKSt3__113move_iteratorIPPNS_10shared_ptrI5EventEEEdeB8ne180100Ev, symObjAddr: 0x1B308, symBinAddr: 0x10001E80C, symSize: 0x18 }
  - { offset: 0x3A6D3, size: 0x8, addend: 0x0, symName: __ZNSt3__113move_iteratorIPPNS_10shared_ptrI5EventEEEppB8ne180100Ev, symObjAddr: 0x1B320, symBinAddr: 0x10001E824, symSize: 0x20 }
  - { offset: 0x3A6F9, size: 0x8, addend: 0x0, symName: __ZNSt3__114__split_bufferIPNS_10shared_ptrI5EventEERNS_9allocatorIS4_EEE21_ConstructTransactionD1B8ne180100Ev, symObjAddr: 0x1B340, symBinAddr: 0x10001E844, symSize: 0x2C }
  - { offset: 0x3A723, size: 0x8, addend: 0x0, symName: __ZNSt3__114__split_bufferIPNS_10shared_ptrI5EventEERNS_9allocatorIS4_EEE21_ConstructTransactionC2B8ne180100EPPS4_m, symObjAddr: 0x1B36C, symBinAddr: 0x10001E870, symSize: 0x44 }
  - { offset: 0x3A769, size: 0x8, addend: 0x0, symName: __ZNSt3__19allocatorIPNS_10shared_ptrI5EventEEE9constructB8ne180100IS4_JS4_EEEvPT_DpOT0_, symObjAddr: 0x1B3B0, symBinAddr: 0x10001E8B4, symSize: 0x28 }
  - { offset: 0x3A7BF, size: 0x8, addend: 0x0, symName: __ZNSt3__117__compressed_pairIPPNS_10shared_ptrI5EventEERNS_9allocatorIS4_EEE6secondB8ne180100Ev, symObjAddr: 0x1B3D8, symBinAddr: 0x10001E8DC, symSize: 0x28 }
  - { offset: 0x3A7E5, size: 0x8, addend: 0x0, symName: __ZNSt3__122__compressed_pair_elemIRNS_9allocatorIPNS_10shared_ptrI5EventEEEELi1ELb0EE5__getB8ne180100Ev, symObjAddr: 0x1B400, symBinAddr: 0x10001E904, symSize: 0x18 }
  - { offset: 0x3A80B, size: 0x8, addend: 0x0, symName: __ZNSt3__114__split_bufferIPNS_10shared_ptrI5EventEERNS_9allocatorIS4_EEE21_ConstructTransactionD2B8ne180100Ev, symObjAddr: 0x1B418, symBinAddr: 0x10001E91C, symSize: 0x20 }
  - { offset: 0x3A835, size: 0x8, addend: 0x0, symName: __ZNKSt3__113move_iteratorIPPNS_10shared_ptrI5EventEEE4baseB8ne180100Ev, symObjAddr: 0x1B4B0, symBinAddr: 0x10001E9B4, symSize: 0x18 }
  - { offset: 0x3A85B, size: 0x8, addend: 0x0, symName: __ZNSt3__113move_iteratorIPPNS_10shared_ptrI5EventEEEC2B8ne180100ES5_, symObjAddr: 0x1B4C8, symBinAddr: 0x10001E9CC, symSize: 0x20 }
  - { offset: 0x3A893, size: 0x8, addend: 0x0, symName: __ZNSt3__19allocatorIPNS_10shared_ptrI5EventEEE9constructB8ne180100IS4_JRKS4_EEEvPT_DpOT0_, symObjAddr: 0x1B4E8, symBinAddr: 0x10001E9EC, symSize: 0x28 }
  - { offset: 0x3A8E9, size: 0x8, addend: 0x0, symName: __ZNSt3__19allocatorINS_10shared_ptrI5EventEEE8allocateB8ne180100Em, symObjAddr: 0x1B510, symBinAddr: 0x10001EA14, symSize: 0x58 }
  - { offset: 0x3A928, size: 0x8, addend: 0x0, symName: __ZNSt3__116allocator_traitsINS_9allocatorINS_10shared_ptrI5EventEEEEE8max_sizeB8ne180100IS5_vEEmRKS5_, symObjAddr: 0x1B568, symBinAddr: 0x10001EA6C, symSize: 0x24 }
  - { offset: 0x3A956, size: 0x8, addend: 0x0, symName: __ZNKSt3__19allocatorINS_10shared_ptrI5EventEEE8max_sizeB8ne180100Ev, symObjAddr: 0x1B58C, symBinAddr: 0x10001EA90, symSize: 0x14 }
  - { offset: 0x3A97C, size: 0x8, addend: 0x0, symName: __ZNKSt3__123__move_backward_trivialclB8ne180100IPNS_10shared_ptrI5EventEES5_Li0EEENS_4pairIPT_PT0_EES8_S8_SA_, symObjAddr: 0x1B71C, symBinAddr: 0x10001EC20, symSize: 0x48 }
  - { offset: 0x3A9E4, size: 0x8, addend: 0x0, symName: __ZNSt3__14pairIPPNS_10shared_ptrI5EventEES5_EC1B8ne180100IRS5_S8_Li0EEEOT_OT0_, symObjAddr: 0x1B82C, symBinAddr: 0x10001ED30, symSize: 0x3C }
  - { offset: 0x3AA42, size: 0x8, addend: 0x0, symName: __ZNSt3__14pairIPPNS_10shared_ptrI5EventEES5_EC2B8ne180100IRS5_S8_Li0EEEOT_OT0_, symObjAddr: 0x1B868, symBinAddr: 0x10001ED6C, symSize: 0x34 }
  - { offset: 0x3AAA0, size: 0x8, addend: 0x0, symName: __ZNSt3__114__split_bufferIPNS_10shared_ptrI5EventEERNS_9allocatorIS4_EEEC2EmmS7_, symObjAddr: 0x1B89C, symBinAddr: 0x10001EDA0, symSize: 0xD4 }
  - { offset: 0x3AB13, size: 0x8, addend: 0x0, symName: __ZNSt3__117__compressed_pairIPPNS_10shared_ptrI5EventEERNS_9allocatorIS4_EEEC1B8ne180100IDnS8_EEOT_OT0_, symObjAddr: 0x1B970, symBinAddr: 0x10001EE74, symSize: 0x3C }
  - { offset: 0x3AB6B, size: 0x8, addend: 0x0, symName: __ZNSt3__117__compressed_pairIPPNS_10shared_ptrI5EventEERNS_9allocatorIS4_EEEC2B8ne180100IDnS8_EEOT_OT0_, symObjAddr: 0x1B9EC, symBinAddr: 0x10001EEF0, symSize: 0x48 }
  - { offset: 0x3ABC3, size: 0x8, addend: 0x0, symName: __ZNSt3__122__compressed_pair_elemIRNS_9allocatorIPNS_10shared_ptrI5EventEEEELi1ELb0EEC2B8ne180100IS7_vEEOT_, symObjAddr: 0x1BA34, symBinAddr: 0x10001EF38, symSize: 0x20 }
  - { offset: 0x3AC05, size: 0x8, addend: 0x0, symName: __ZNSt3__19allocatorIPNS_10shared_ptrI5EventEEE8allocateB8ne180100Em, symObjAddr: 0x1BA54, symBinAddr: 0x10001EF58, symSize: 0x58 }
  - { offset: 0x3AC44, size: 0x8, addend: 0x0, symName: __ZNSt3__116allocator_traitsINS_9allocatorIPNS_10shared_ptrI5EventEEEEE8max_sizeB8ne180100IS6_vEEmRKS6_, symObjAddr: 0x1BAAC, symBinAddr: 0x10001EFB0, symSize: 0x24 }
  - { offset: 0x3AC72, size: 0x8, addend: 0x0, symName: __ZNKSt3__19allocatorIPNS_10shared_ptrI5EventEEE8max_sizeB8ne180100Ev, symObjAddr: 0x1BAD0, symBinAddr: 0x10001EFD4, symSize: 0x14 }
  - { offset: 0x3AC98, size: 0x8, addend: 0x0, symName: __ZNSt3__122__allocator_destructorINS_9allocatorINS_10shared_ptrI5EventEEEEEC2B8ne180100ERS5_m, symObjAddr: 0x1BAE4, symBinAddr: 0x10001EFE8, symSize: 0x2C }
  - { offset: 0x3ACDE, size: 0x8, addend: 0x0, symName: __ZNSt3__110unique_ptrIPNS_10shared_ptrI5EventEENS_22__allocator_destructorINS_9allocatorIS3_EEEEEC2B8ne180100ILb1EvEES4_NS_16__dependent_typeINS_27__unique_ptr_deleter_sfinaeIS8_EEXT_EE20__good_rval_ref_typeE, symObjAddr: 0x1BB10, symBinAddr: 0x10001F014, symSize: 0x48 }
  - { offset: 0x3AD2F, size: 0x8, addend: 0x0, symName: __ZNSt3__117__compressed_pairIPNS_10shared_ptrI5EventEENS_22__allocator_destructorINS_9allocatorIS3_EEEEEC1B8ne180100IRS4_S8_EEOT_OT0_, symObjAddr: 0x1BB58, symBinAddr: 0x10001F05C, symSize: 0x3C }
  - { offset: 0x3AD87, size: 0x8, addend: 0x0, symName: __ZNSt3__117__compressed_pairIPNS_10shared_ptrI5EventEENS_22__allocator_destructorINS_9allocatorIS3_EEEEEC2B8ne180100IRS4_S8_EEOT_OT0_, symObjAddr: 0x1BB94, symBinAddr: 0x10001F098, symSize: 0x48 }
  - { offset: 0x3ADDF, size: 0x8, addend: 0x0, symName: __ZNSt3__122__compressed_pair_elemIPNS_10shared_ptrI5EventEELi0ELb0EEC2B8ne180100IRS4_vEEOT_, symObjAddr: 0x1BBDC, symBinAddr: 0x10001F0E0, symSize: 0x24 }
  - { offset: 0x3AE21, size: 0x8, addend: 0x0, symName: __ZNSt3__122__compressed_pair_elemINS_22__allocator_destructorINS_9allocatorINS_10shared_ptrI5EventEEEEEELi1ELb0EEC2B8ne180100IS7_vEEOT_, symObjAddr: 0x1BC00, symBinAddr: 0x10001F104, symSize: 0x24 }
  - { offset: 0x3AE63, size: 0x8, addend: 0x0, symName: __ZNKSt3__117__compressed_pairIPNS_10shared_ptrI5EventEENS_22__allocator_destructorINS_9allocatorIS3_EEEEE5firstB8ne180100Ev, symObjAddr: 0x1BC24, symBinAddr: 0x10001F128, symSize: 0x24 }
  - { offset: 0x3AE89, size: 0x8, addend: 0x0, symName: __ZNKSt3__122__compressed_pair_elemIPNS_10shared_ptrI5EventEELi0ELb0EE5__getB8ne180100Ev, symObjAddr: 0x1BC48, symBinAddr: 0x10001F14C, symSize: 0x14 }
  - { offset: 0x3AEAF, size: 0x8, addend: 0x0, symName: __ZNSt3__117__compressed_pairIPNS_10shared_ptrI5EventEENS_22__allocator_destructorINS_9allocatorIS3_EEEEE5firstB8ne180100Ev, symObjAddr: 0x1BC5C, symBinAddr: 0x10001F160, symSize: 0x24 }
  - { offset: 0x3AED5, size: 0x8, addend: 0x0, symName: __ZNSt3__122__compressed_pair_elemIPNS_10shared_ptrI5EventEELi0ELb0EE5__getB8ne180100Ev, symObjAddr: 0x1BC80, symBinAddr: 0x10001F184, symSize: 0x14 }
  - { offset: 0x3AEFB, size: 0x8, addend: 0x0, symName: __ZNSt3__117__compressed_pairIPPNS_10shared_ptrI5EventEENS_9allocatorIS4_EEE5firstB8ne180100Ev, symObjAddr: 0x1BC94, symBinAddr: 0x10001F198, symSize: 0x24 }
  - { offset: 0x3AF21, size: 0x8, addend: 0x0, symName: __ZNSt3__122__compressed_pair_elemIPPNS_10shared_ptrI5EventEELi0ELb0EE5__getB8ne180100Ev, symObjAddr: 0x1BCB8, symBinAddr: 0x10001F1BC, symSize: 0x14 }
  - { offset: 0x3AF47, size: 0x8, addend: 0x0, symName: __ZNSt3__117__compressed_pairIPPNS_10shared_ptrI5EventEERNS_9allocatorIS4_EEE5firstB8ne180100Ev, symObjAddr: 0x1BCCC, symBinAddr: 0x10001F1D0, symSize: 0x24 }
  - { offset: 0x3AF6D, size: 0x8, addend: 0x0, symName: __ZNSt3__110unique_ptrIPNS_10shared_ptrI5EventEENS_22__allocator_destructorINS_9allocatorIS3_EEEEED2B8ne180100Ev, symObjAddr: 0x1BCF0, symBinAddr: 0x10001F1F4, symSize: 0x30 }
  - { offset: 0x3AF97, size: 0x8, addend: 0x0, symName: __ZNSt3__110unique_ptrIPNS_10shared_ptrI5EventEENS_22__allocator_destructorINS_9allocatorIS3_EEEEE5resetB8ne180100ES4_, symObjAddr: 0x1BD20, symBinAddr: 0x10001F224, symSize: 0x78 }
  - { offset: 0x3AFDB, size: 0x8, addend: 0x0, symName: __ZNSt3__117__compressed_pairIPNS_10shared_ptrI5EventEENS_22__allocator_destructorINS_9allocatorIS3_EEEEE6secondB8ne180100Ev, symObjAddr: 0x1BD98, symBinAddr: 0x10001F29C, symSize: 0x28 }
  - { offset: 0x3B001, size: 0x8, addend: 0x0, symName: __ZNSt3__122__allocator_destructorINS_9allocatorINS_10shared_ptrI5EventEEEEEclB8ne180100EPS4_, symObjAddr: 0x1BDC0, symBinAddr: 0x10001F2C4, symSize: 0x34 }
  - { offset: 0x3B035, size: 0x8, addend: 0x0, symName: __ZNSt3__122__compressed_pair_elemINS_22__allocator_destructorINS_9allocatorINS_10shared_ptrI5EventEEEEEELi1ELb0EE5__getB8ne180100Ev, symObjAddr: 0x1BDF4, symBinAddr: 0x10001F2F8, symSize: 0x14 }
  - { offset: 0x3B05B, size: 0x8, addend: 0x0, symName: __ZNSt3__114__split_bufferIPNS_10shared_ptrI5EventEERNS_9allocatorIS4_EEED2Ev, symObjAddr: 0x1BE08, symBinAddr: 0x10001F30C, symSize: 0x8C }
  - { offset: 0x3B087, size: 0x8, addend: 0x0, symName: __ZNSt3__114__split_bufferIPNS_10shared_ptrI5EventEERNS_9allocatorIS4_EEE5clearB8ne180100Ev, symObjAddr: 0x1BE94, symBinAddr: 0x10001F398, symSize: 0x28 }
  - { offset: 0x3B0AD, size: 0x8, addend: 0x0, symName: __ZNKSt3__114__split_bufferIPNS_10shared_ptrI5EventEERNS_9allocatorIS4_EEE8capacityB8ne180100Ev, symObjAddr: 0x1BEBC, symBinAddr: 0x10001F3C0, symSize: 0x40 }
  - { offset: 0x3B0D3, size: 0x8, addend: 0x0, symName: __ZNSt3__114__split_bufferIPNS_10shared_ptrI5EventEERNS_9allocatorIS4_EEE17__destruct_at_endB8ne180100EPS4_, symObjAddr: 0x1BEFC, symBinAddr: 0x10001F400, symSize: 0x2C }
  - { offset: 0x3B107, size: 0x8, addend: 0x0, symName: __ZNSt3__114__split_bufferIPNS_10shared_ptrI5EventEERNS_9allocatorIS4_EEE17__destruct_at_endB8ne180100EPS4_NS_17integral_constantIbLb0EEE, symObjAddr: 0x1BF28, symBinAddr: 0x10001F42C, symSize: 0x80 }
  - { offset: 0x3B147, size: 0x8, addend: 0x0, symName: __ZNKSt3__114__split_bufferIPNS_10shared_ptrI5EventEERNS_9allocatorIS4_EEE9__end_capB8ne180100Ev, symObjAddr: 0x1BFA8, symBinAddr: 0x10001F4AC, symSize: 0x28 }
  - { offset: 0x3B16D, size: 0x8, addend: 0x0, symName: __ZNKSt3__117__compressed_pairIPPNS_10shared_ptrI5EventEERNS_9allocatorIS4_EEE5firstB8ne180100Ev, symObjAddr: 0x1BFD0, symBinAddr: 0x10001F4D4, symSize: 0x24 }
  - { offset: 0x3B193, size: 0x8, addend: 0x0, symName: __ZNSt3__19allocatorINS_10shared_ptrI5EventEEE9constructB8ne180100IS3_JS3_EEEvPT_DpOT0_, symObjAddr: 0x1BFF4, symBinAddr: 0x10001F4F8, symSize: 0x30 }
  - { offset: 0x3B1E9, size: 0x8, addend: 0x0, symName: __ZNSt3__110shared_ptrI5EventEC1B8ne180100EOS2_, symObjAddr: 0x1C024, symBinAddr: 0x10001F528, symSize: 0x34 }
  - { offset: 0x3B222, size: 0x8, addend: 0x0, symName: __ZNSt3__110shared_ptrI5EventEC2B8ne180100EOS2_, symObjAddr: 0x1C058, symBinAddr: 0x10001F55C, symSize: 0x40 }
  - { offset: 0x3B25B, size: 0x8, addend: 0x0, symName: __ZNSt3__19allocatorI10SoundEventEC1B8ne180100Ev, symObjAddr: 0x1C130, symBinAddr: 0x10001F634, symSize: 0x2C }
  - { offset: 0x3B2DC, size: 0x8, addend: 0x0, symName: __ZNSt3__118__allocation_guardINS_9allocatorINS_20__shared_ptr_emplaceI10SoundEventNS1_IS3_EEEEEEEC1B8ne180100IS4_EET_m, symObjAddr: 0x1C15C, symBinAddr: 0x10001F660, symSize: 0x34 }
  - { offset: 0x3B32B, size: 0x8, addend: 0x0, symName: __ZNKSt3__118__allocation_guardINS_9allocatorINS_20__shared_ptr_emplaceI10SoundEventNS1_IS3_EEEEEEE5__getB8ne180100Ev, symObjAddr: 0x1C190, symBinAddr: 0x10001F694, symSize: 0x18 }
  - { offset: 0x3B351, size: 0x8, addend: 0x0, symName: __ZNSt3__120__shared_ptr_emplaceI10SoundEventNS_9allocatorIS1_EEEC1B8ne180100IJR11SoundPlayerES3_Li0EEES3_DpOT_, symObjAddr: 0x1C1A8, symBinAddr: 0x10001F6AC, symSize: 0x34 }
  - { offset: 0x3B3B3, size: 0x8, addend: 0x0, symName: __ZNSt3__118__allocation_guardINS_9allocatorINS_20__shared_ptr_emplaceI10SoundEventNS1_IS3_EEEEEEE13__release_ptrB8ne180100Ev, symObjAddr: 0x1C1DC, symBinAddr: 0x10001F6E0, symSize: 0x24 }
  - { offset: 0x3B3E7, size: 0x8, addend: 0x0, symName: __ZNSt3__110shared_ptrI10SoundEventE27__create_with_control_blockB8ne180100IS1_NS_20__shared_ptr_emplaceIS1_NS_9allocatorIS1_EEEEEES2_PT_PT0_, symObjAddr: 0x1C200, symBinAddr: 0x10001F704, symSize: 0xA4 }
  - { offset: 0x3B43C, size: 0x8, addend: 0x0, symName: __ZNSt3__120__shared_ptr_emplaceI10SoundEventNS_9allocatorIS1_EEE10__get_elemB8ne180100Ev, symObjAddr: 0x1C2A4, symBinAddr: 0x10001F7A8, symSize: 0x28 }
  - { offset: 0x3B462, size: 0x8, addend: 0x0, symName: __ZNSt3__118__allocation_guardINS_9allocatorINS_20__shared_ptr_emplaceI10SoundEventNS1_IS3_EEEEEEED1B8ne180100Ev, symObjAddr: 0x1C2CC, symBinAddr: 0x10001F7D0, symSize: 0x2C }
  - { offset: 0x3B48C, size: 0x8, addend: 0x0, symName: __ZNSt3__118__allocation_guardINS_9allocatorINS_20__shared_ptr_emplaceI10SoundEventNS1_IS3_EEEEEEEC2B8ne180100IS4_EET_m, symObjAddr: 0x1C2F8, symBinAddr: 0x10001F7FC, symSize: 0x50 }
  - { offset: 0x3B4DB, size: 0x8, addend: 0x0, symName: __ZNSt3__19allocatorINS_20__shared_ptr_emplaceI10SoundEventNS0_IS2_EEEEEC1B8ne180100IS2_EERKNS0_IT_EE, symObjAddr: 0x1C348, symBinAddr: 0x10001F84C, symSize: 0x34 }
  - { offset: 0x3B518, size: 0x8, addend: 0x0, symName: __ZNSt3__116allocator_traitsINS_9allocatorINS_20__shared_ptr_emplaceI10SoundEventNS1_IS3_EEEEEEE8allocateB8ne180100ERS6_m, symObjAddr: 0x1C37C, symBinAddr: 0x10001F880, symSize: 0x2C }
  - { offset: 0x3B54B, size: 0x8, addend: 0x0, symName: __ZNSt3__19allocatorINS_20__shared_ptr_emplaceI10SoundEventNS0_IS2_EEEEEC2B8ne180100IS2_EERKNS0_IT_EE, symObjAddr: 0x1C3A8, symBinAddr: 0x10001F8AC, symSize: 0x30 }
  - { offset: 0x3B588, size: 0x8, addend: 0x0, symName: __ZNSt3__116__non_trivial_ifILb1ENS_9allocatorINS_20__shared_ptr_emplaceI10SoundEventNS1_IS3_EEEEEEEC2B8ne180100Ev, symObjAddr: 0x1C3D8, symBinAddr: 0x10001F8DC, symSize: 0x14 }
  - { offset: 0x3B5B2, size: 0x8, addend: 0x0, symName: __ZNSt3__19allocatorINS_20__shared_ptr_emplaceI10SoundEventNS0_IS2_EEEEE8allocateB8ne180100Em, symObjAddr: 0x1C3EC, symBinAddr: 0x10001F8F0, symSize: 0x5C }
  - { offset: 0x3B5F1, size: 0x8, addend: 0x0, symName: __ZNSt3__116allocator_traitsINS_9allocatorINS_20__shared_ptr_emplaceI10SoundEventNS1_IS3_EEEEEEE8max_sizeB8ne180100IS6_vEEmRKS6_, symObjAddr: 0x1C448, symBinAddr: 0x10001F94C, symSize: 0x24 }
  - { offset: 0x3B61F, size: 0x8, addend: 0x0, symName: __ZNKSt3__19allocatorINS_20__shared_ptr_emplaceI10SoundEventNS0_IS2_EEEEE8max_sizeB8ne180100Ev, symObjAddr: 0x1C46C, symBinAddr: 0x10001F970, symSize: 0x18 }
  - { offset: 0x3B645, size: 0x8, addend: 0x0, symName: __ZNSt3__120__shared_ptr_emplaceI10SoundEventNS_9allocatorIS1_EEEC2B8ne180100IJR11SoundPlayerES3_Li0EEES3_DpOT_, symObjAddr: 0x1C484, symBinAddr: 0x10001F988, symSize: 0xBC }
  - { offset: 0x3B6C8, size: 0x8, addend: 0x0, symName: __ZNSt3__120__shared_ptr_emplaceI10SoundEventNS_9allocatorIS1_EEE8_StorageC1B8ne180100EOS3_, symObjAddr: 0x1C540, symBinAddr: 0x10001FA44, symSize: 0x34 }
  - { offset: 0x3B701, size: 0x8, addend: 0x0, symName: __ZNSt3__120__shared_ptr_emplaceI10SoundEventNS_9allocatorIS1_EEE11__get_allocB8ne180100Ev, symObjAddr: 0x1C574, symBinAddr: 0x10001FA78, symSize: 0x28 }
  - { offset: 0x3B72D, size: 0x8, addend: 0x0, symName: __ZNSt3__116allocator_traitsINS_9allocatorI10SoundEventEEE9constructB8ne180100IS2_JR11SoundPlayerEvEEvRS3_PT_DpOT0_, symObjAddr: 0x1C59C, symBinAddr: 0x10001FAA0, symSize: 0x34 }
  - { offset: 0x3B784, size: 0x8, addend: 0x0, symName: __ZNSt3__120__shared_ptr_emplaceI10SoundEventNS_9allocatorIS1_EEE8_StorageD1B8ne180100Ev, symObjAddr: 0x1C5D0, symBinAddr: 0x10001FAD4, symSize: 0x2C }
  - { offset: 0x3B7AE, size: 0x8, addend: 0x0, symName: __ZNSt3__120__shared_ptr_emplaceI10SoundEventNS_9allocatorIS1_EEED1Ev, symObjAddr: 0x1C5FC, symBinAddr: 0x10001FB00, symSize: 0x2C }
  - { offset: 0x3B7DA, size: 0x8, addend: 0x0, symName: __ZNSt3__120__shared_ptr_emplaceI10SoundEventNS_9allocatorIS1_EEED0Ev, symObjAddr: 0x1C628, symBinAddr: 0x10001FB2C, symSize: 0x30 }
  - { offset: 0x3B806, size: 0x8, addend: 0x0, symName: __ZNSt3__120__shared_ptr_emplaceI10SoundEventNS_9allocatorIS1_EEE16__on_zero_sharedEv, symObjAddr: 0x1C658, symBinAddr: 0x10001FB5C, symSize: 0x24 }
  - { offset: 0x3B82C, size: 0x8, addend: 0x0, symName: __ZNSt3__120__shared_ptr_emplaceI10SoundEventNS_9allocatorIS1_EEE21__on_zero_shared_weakEv, symObjAddr: 0x1C67C, symBinAddr: 0x10001FB80, symSize: 0x5C }
  - { offset: 0x3B86D, size: 0x8, addend: 0x0, symName: __ZNSt3__120__shared_ptr_emplaceI10SoundEventNS_9allocatorIS1_EEE8_StorageC2B8ne180100EOS3_, symObjAddr: 0x1C6D8, symBinAddr: 0x10001FBDC, symSize: 0x30 }
  - { offset: 0x3B8A6, size: 0x8, addend: 0x0, symName: __ZNSt3__120__shared_ptr_emplaceI10SoundEventNS_9allocatorIS1_EEE8_Storage11__get_allocB8ne180100Ev, symObjAddr: 0x1C708, symBinAddr: 0x10001FC0C, symSize: 0x3C }
  - { offset: 0x3B8F9, size: 0x8, addend: 0x0, symName: __ZNSt3__117__compressed_pairINS_9allocatorI10SoundEventEES2_E16__get_first_baseB8ne180100EPS4_, symObjAddr: 0x1C744, symBinAddr: 0x10001FC48, symSize: 0x14 }
  - { offset: 0x3B91C, size: 0x8, addend: 0x0, symName: __ZNSt3__19allocatorI10SoundEventE9constructB8ne180100IS1_JR11SoundPlayerEEEvPT_DpOT0_, symObjAddr: 0x1C758, symBinAddr: 0x10001FC5C, symSize: 0x30 }
  - { offset: 0x3B972, size: 0x8, addend: 0x0, symName: __ZN10SoundEventC1ER11SoundPlayer, symObjAddr: 0x1C788, symBinAddr: 0x10001FC8C, symSize: 0x34 }
  - { offset: 0x3B9AA, size: 0x8, addend: 0x0, symName: __ZN10SoundEventC2ER11SoundPlayer, symObjAddr: 0x1C7BC, symBinAddr: 0x10001FCC0, symSize: 0x48 }
  - { offset: 0x3B9E2, size: 0x8, addend: 0x0, symName: __ZN10SoundEvent6handleEv, symObjAddr: 0x1C804, symBinAddr: 0x10001FD08, symSize: 0x28 }
  - { offset: 0x3BA08, size: 0x8, addend: 0x0, symName: __ZNK11SoundPlayer9playSoundEv, symObjAddr: 0x1C82C, symBinAddr: 0x10001FD30, symSize: 0x6C }
  - { offset: 0x3BA2E, size: 0x8, addend: 0x0, symName: __ZNSt3__120__shared_ptr_emplaceI10SoundEventNS_9allocatorIS1_EEE8_StorageD2B8ne180100Ev, symObjAddr: 0x1C898, symBinAddr: 0x10001FD9C, symSize: 0x2C }
  - { offset: 0x3BA58, size: 0x8, addend: 0x0, symName: __ZNSt3__120__shared_ptr_emplaceI10SoundEventNS_9allocatorIS1_EEED2Ev, symObjAddr: 0x1C8C4, symBinAddr: 0x10001FDC8, symSize: 0x48 }
  - { offset: 0x3BA84, size: 0x8, addend: 0x0, symName: __ZNSt3__120__shared_ptr_emplaceI10SoundEventNS_9allocatorIS1_EEE21__on_zero_shared_implB8ne180100IS3_Li0EEEvv, symObjAddr: 0x1C90C, symBinAddr: 0x10001FE10, symSize: 0x44 }
  - { offset: 0x3BAD4, size: 0x8, addend: 0x0, symName: __ZNSt3__116allocator_traitsINS_9allocatorI10SoundEventEEE7destroyB8ne180100IS2_vEEvRS3_PT_, symObjAddr: 0x1C950, symBinAddr: 0x10001FE54, symSize: 0x2C }
  - { offset: 0x3BB11, size: 0x8, addend: 0x0, symName: __ZNSt3__19allocatorI10SoundEventE7destroyB8ne180100EPS1_, symObjAddr: 0x1C97C, symBinAddr: 0x10001FE80, symSize: 0x14 }
  - { offset: 0x3BB45, size: 0x8, addend: 0x0, symName: __ZNSt3__116allocator_traitsINS_9allocatorINS_20__shared_ptr_emplaceI10SoundEventNS1_IS3_EEEEEEE10deallocateB8ne180100ERS6_PS5_m, symObjAddr: 0x1C990, symBinAddr: 0x10001FE94, symSize: 0x34 }
  - { offset: 0x3BB87, size: 0x8, addend: 0x0, symName: __ZNSt3__114pointer_traitsIPNS_20__shared_ptr_emplaceI10SoundEventNS_9allocatorIS2_EEEEE10pointer_toB8ne180100ERS5_, symObjAddr: 0x1C9C4, symBinAddr: 0x10001FEC8, symSize: 0x14 }
  - { offset: 0x3BBAA, size: 0x8, addend: 0x0, symName: __ZNSt3__19allocatorINS_20__shared_ptr_emplaceI10SoundEventNS0_IS2_EEEEE10deallocateB8ne180100EPS4_m, symObjAddr: 0x1C9D8, symBinAddr: 0x10001FEDC, symSize: 0x44 }
  - { offset: 0x3BBEC, size: 0x8, addend: 0x0, symName: __ZNSt3__110shared_ptrI10SoundEventEC1B8ne180100Ev, symObjAddr: 0x1CA1C, symBinAddr: 0x10001FF20, symSize: 0x2C }
  - { offset: 0x3BC16, size: 0x8, addend: 0x0, symName: __ZNSt3__110shared_ptrI10SoundEventE18__enable_weak_thisB8ne180100Ez, symObjAddr: 0x1CA48, symBinAddr: 0x10001FF4C, symSize: 0x10 }
  - { offset: 0x3BC3D, size: 0x8, addend: 0x0, symName: __ZNSt3__110shared_ptrI10SoundEventEC2B8ne180100Ev, symObjAddr: 0x1CA58, symBinAddr: 0x10001FF5C, symSize: 0x1C }
  - { offset: 0x3BC67, size: 0x8, addend: 0x0, symName: __ZNSt3__120__shared_ptr_emplaceI10SoundEventNS_9allocatorIS1_EEE8_Storage10__get_elemB8ne180100Ev, symObjAddr: 0x1CA74, symBinAddr: 0x10001FF78, symSize: 0x3C }
  - { offset: 0x3BCBA, size: 0x8, addend: 0x0, symName: __ZNSt3__117__compressed_pairINS_9allocatorI10SoundEventEES2_E17__get_second_baseB8ne180100EPS4_, symObjAddr: 0x1CAB0, symBinAddr: 0x10001FFB4, symSize: 0x14 }
  - { offset: 0x3BCDD, size: 0x8, addend: 0x0, symName: __ZNSt3__118__allocation_guardINS_9allocatorINS_20__shared_ptr_emplaceI10SoundEventNS1_IS3_EEEEEEED2B8ne180100Ev, symObjAddr: 0x1CAC4, symBinAddr: 0x10001FFC8, symSize: 0x2C }
  - { offset: 0x3BD07, size: 0x8, addend: 0x0, symName: __ZNSt3__118__allocation_guardINS_9allocatorINS_20__shared_ptr_emplaceI10SoundEventNS1_IS3_EEEEEEE9__destroyB8ne180100Ev, symObjAddr: 0x1CAF0, symBinAddr: 0x10001FFF4, symSize: 0x4C }
  - { offset: 0x3BD2D, size: 0x8, addend: 0x0, symName: __ZNSt3__19allocatorI10SoundEventEC2B8ne180100Ev, symObjAddr: 0x1CB3C, symBinAddr: 0x100020040, symSize: 0x2C }
  - { offset: 0x3BD57, size: 0x8, addend: 0x0, symName: __ZNSt3__116__non_trivial_ifILb1ENS_9allocatorI10SoundEventEEEC2B8ne180100Ev, symObjAddr: 0x1CB68, symBinAddr: 0x10002006C, symSize: 0x14 }
  - { offset: 0x3BD81, size: 0x8, addend: 0x0, symName: __ZNSt3__110shared_ptrI10SoundEventED2B8ne180100Ev, symObjAddr: 0x1CB7C, symBinAddr: 0x100020080, symSize: 0x54 }
  - { offset: 0x3BDAB, size: 0x8, addend: 0x0, symName: __ZNSt3__110shared_ptrI5EventEC2B8ne180100I10SoundEventvEEONS0_IT_EE, symObjAddr: 0x1CBD0, symBinAddr: 0x1000200D4, symSize: 0x40 }
  - { offset: 0x3BDEE, size: 0x8, addend: 0x0, symName: __ZNSt3__116allocator_traitsINS_9allocatorINS_10shared_ptrI5EventEEEEE9constructB8ne180100IS4_JRKS4_EvEEvRS5_PT_DpOT0_, symObjAddr: 0x1CC10, symBinAddr: 0x100020114, symSize: 0x34 }
  - { offset: 0x3BE45, size: 0x8, addend: 0x0, symName: __ZNSt3__19allocatorINS_10shared_ptrI5EventEEE9constructB8ne180100IS3_JRKS3_EEEvPT_DpOT0_, symObjAddr: 0x1CC44, symBinAddr: 0x100020148, symSize: 0x30 }
  - { offset: 0x3BE9B, size: 0x8, addend: 0x0, symName: __ZNSt3__110shared_ptrI5EventEC1B8ne180100ERKS2_, symObjAddr: 0x1CC74, symBinAddr: 0x100020178, symSize: 0x34 }
  - { offset: 0x3BED4, size: 0x8, addend: 0x0, symName: __ZNSt3__110shared_ptrI5EventEC2B8ne180100ERKS2_, symObjAddr: 0x1CCA8, symBinAddr: 0x1000201AC, symSize: 0x70 }
  - { offset: 0x3BF0D, size: 0x8, addend: 0x0, symName: __ZNSt3__19allocatorI11RotateEventEC1B8ne180100Ev, symObjAddr: 0x1CDB0, symBinAddr: 0x1000202B4, symSize: 0x2C }
  - { offset: 0x3BF8E, size: 0x8, addend: 0x0, symName: __ZNSt3__118__allocation_guardINS_9allocatorINS_20__shared_ptr_emplaceI11RotateEventNS1_IS3_EEEEEEEC1B8ne180100IS4_EET_m, symObjAddr: 0x1CDDC, symBinAddr: 0x1000202E0, symSize: 0x34 }
  - { offset: 0x3BFDD, size: 0x8, addend: 0x0, symName: __ZNKSt3__118__allocation_guardINS_9allocatorINS_20__shared_ptr_emplaceI11RotateEventNS1_IS3_EEEEEEE5__getB8ne180100Ev, symObjAddr: 0x1CE10, symBinAddr: 0x100020314, symSize: 0x18 }
  - { offset: 0x3C003, size: 0x8, addend: 0x0, symName: __ZNSt3__120__shared_ptr_emplaceI11RotateEventNS_9allocatorIS1_EEEC1B8ne180100IJRNS_10shared_ptrI6LayoutEEES3_Li0EEES3_DpOT_, symObjAddr: 0x1CE28, symBinAddr: 0x10002032C, symSize: 0x34 }
  - { offset: 0x3C065, size: 0x8, addend: 0x0, symName: __ZNSt3__118__allocation_guardINS_9allocatorINS_20__shared_ptr_emplaceI11RotateEventNS1_IS3_EEEEEEE13__release_ptrB8ne180100Ev, symObjAddr: 0x1CE5C, symBinAddr: 0x100020360, symSize: 0x24 }
  - { offset: 0x3C099, size: 0x8, addend: 0x0, symName: __ZNSt3__110shared_ptrI11RotateEventE27__create_with_control_blockB8ne180100IS1_NS_20__shared_ptr_emplaceIS1_NS_9allocatorIS1_EEEEEES2_PT_PT0_, symObjAddr: 0x1CE80, symBinAddr: 0x100020384, symSize: 0xA4 }
  - { offset: 0x3C0EE, size: 0x8, addend: 0x0, symName: __ZNSt3__120__shared_ptr_emplaceI11RotateEventNS_9allocatorIS1_EEE10__get_elemB8ne180100Ev, symObjAddr: 0x1CF24, symBinAddr: 0x100020428, symSize: 0x28 }
  - { offset: 0x3C114, size: 0x8, addend: 0x0, symName: __ZNSt3__118__allocation_guardINS_9allocatorINS_20__shared_ptr_emplaceI11RotateEventNS1_IS3_EEEEEEED1B8ne180100Ev, symObjAddr: 0x1CF4C, symBinAddr: 0x100020450, symSize: 0x2C }
  - { offset: 0x3C13E, size: 0x8, addend: 0x0, symName: __ZNSt3__118__allocation_guardINS_9allocatorINS_20__shared_ptr_emplaceI11RotateEventNS1_IS3_EEEEEEEC2B8ne180100IS4_EET_m, symObjAddr: 0x1CF78, symBinAddr: 0x10002047C, symSize: 0x50 }
  - { offset: 0x3C18D, size: 0x8, addend: 0x0, symName: __ZNSt3__19allocatorINS_20__shared_ptr_emplaceI11RotateEventNS0_IS2_EEEEEC1B8ne180100IS2_EERKNS0_IT_EE, symObjAddr: 0x1CFC8, symBinAddr: 0x1000204CC, symSize: 0x34 }
  - { offset: 0x3C1CA, size: 0x8, addend: 0x0, symName: __ZNSt3__116allocator_traitsINS_9allocatorINS_20__shared_ptr_emplaceI11RotateEventNS1_IS3_EEEEEEE8allocateB8ne180100ERS6_m, symObjAddr: 0x1CFFC, symBinAddr: 0x100020500, symSize: 0x2C }
  - { offset: 0x3C1FD, size: 0x8, addend: 0x0, symName: __ZNSt3__19allocatorINS_20__shared_ptr_emplaceI11RotateEventNS0_IS2_EEEEEC2B8ne180100IS2_EERKNS0_IT_EE, symObjAddr: 0x1D028, symBinAddr: 0x10002052C, symSize: 0x30 }
  - { offset: 0x3C23A, size: 0x8, addend: 0x0, symName: __ZNSt3__116__non_trivial_ifILb1ENS_9allocatorINS_20__shared_ptr_emplaceI11RotateEventNS1_IS3_EEEEEEEC2B8ne180100Ev, symObjAddr: 0x1D058, symBinAddr: 0x10002055C, symSize: 0x14 }
  - { offset: 0x3C264, size: 0x8, addend: 0x0, symName: __ZNSt3__19allocatorINS_20__shared_ptr_emplaceI11RotateEventNS0_IS2_EEEEE8allocateB8ne180100Em, symObjAddr: 0x1D06C, symBinAddr: 0x100020570, symSize: 0x5C }
  - { offset: 0x3C2A3, size: 0x8, addend: 0x0, symName: __ZNSt3__116allocator_traitsINS_9allocatorINS_20__shared_ptr_emplaceI11RotateEventNS1_IS3_EEEEEEE8max_sizeB8ne180100IS6_vEEmRKS6_, symObjAddr: 0x1D0C8, symBinAddr: 0x1000205CC, symSize: 0x24 }
  - { offset: 0x3C2D1, size: 0x8, addend: 0x0, symName: __ZNKSt3__19allocatorINS_20__shared_ptr_emplaceI11RotateEventNS0_IS2_EEEEE8max_sizeB8ne180100Ev, symObjAddr: 0x1D0EC, symBinAddr: 0x1000205F0, symSize: 0x20 }
  - { offset: 0x3C2F7, size: 0x8, addend: 0x0, symName: __ZNSt3__120__shared_ptr_emplaceI11RotateEventNS_9allocatorIS1_EEEC2B8ne180100IJRNS_10shared_ptrI6LayoutEEES3_Li0EEES3_DpOT_, symObjAddr: 0x1D10C, symBinAddr: 0x100020610, symSize: 0xBC }
  - { offset: 0x3C37A, size: 0x8, addend: 0x0, symName: __ZNSt3__120__shared_ptr_emplaceI11RotateEventNS_9allocatorIS1_EEE8_StorageC1B8ne180100EOS3_, symObjAddr: 0x1D1C8, symBinAddr: 0x1000206CC, symSize: 0x34 }
  - { offset: 0x3C3B3, size: 0x8, addend: 0x0, symName: __ZNSt3__120__shared_ptr_emplaceI11RotateEventNS_9allocatorIS1_EEE11__get_allocB8ne180100Ev, symObjAddr: 0x1D1FC, symBinAddr: 0x100020700, symSize: 0x28 }
  - { offset: 0x3C3DF, size: 0x8, addend: 0x0, symName: __ZNSt3__116allocator_traitsINS_9allocatorI11RotateEventEEE9constructB8ne180100IS2_JRNS_10shared_ptrI6LayoutEEEvEEvRS3_PT_DpOT0_, symObjAddr: 0x1D224, symBinAddr: 0x100020728, symSize: 0x34 }
  - { offset: 0x3C436, size: 0x8, addend: 0x0, symName: __ZNSt3__120__shared_ptr_emplaceI11RotateEventNS_9allocatorIS1_EEE8_StorageD1B8ne180100Ev, symObjAddr: 0x1D258, symBinAddr: 0x10002075C, symSize: 0x2C }
  - { offset: 0x3C460, size: 0x8, addend: 0x0, symName: __ZNSt3__120__shared_ptr_emplaceI11RotateEventNS_9allocatorIS1_EEED1Ev, symObjAddr: 0x1D284, symBinAddr: 0x100020788, symSize: 0x2C }
  - { offset: 0x3C48C, size: 0x8, addend: 0x0, symName: __ZNSt3__120__shared_ptr_emplaceI11RotateEventNS_9allocatorIS1_EEED0Ev, symObjAddr: 0x1D2B0, symBinAddr: 0x1000207B4, symSize: 0x30 }
  - { offset: 0x3C4B8, size: 0x8, addend: 0x0, symName: __ZNSt3__120__shared_ptr_emplaceI11RotateEventNS_9allocatorIS1_EEE16__on_zero_sharedEv, symObjAddr: 0x1D2E0, symBinAddr: 0x1000207E4, symSize: 0x24 }
  - { offset: 0x3C4DE, size: 0x8, addend: 0x0, symName: __ZNSt3__120__shared_ptr_emplaceI11RotateEventNS_9allocatorIS1_EEE21__on_zero_shared_weakEv, symObjAddr: 0x1D304, symBinAddr: 0x100020808, symSize: 0x5C }
  - { offset: 0x3C51F, size: 0x8, addend: 0x0, symName: __ZNSt3__120__shared_ptr_emplaceI11RotateEventNS_9allocatorIS1_EEE8_StorageC2B8ne180100EOS3_, symObjAddr: 0x1D360, symBinAddr: 0x100020864, symSize: 0x30 }
  - { offset: 0x3C558, size: 0x8, addend: 0x0, symName: __ZNSt3__120__shared_ptr_emplaceI11RotateEventNS_9allocatorIS1_EEE8_Storage11__get_allocB8ne180100Ev, symObjAddr: 0x1D390, symBinAddr: 0x100020894, symSize: 0x3C }
  - { offset: 0x3C5AB, size: 0x8, addend: 0x0, symName: __ZNSt3__117__compressed_pairINS_9allocatorI11RotateEventEES2_E16__get_first_baseB8ne180100EPS4_, symObjAddr: 0x1D3CC, symBinAddr: 0x1000208D0, symSize: 0x14 }
  - { offset: 0x3C5CE, size: 0x8, addend: 0x0, symName: __ZNSt3__19allocatorI11RotateEventE9constructB8ne180100IS1_JRNS_10shared_ptrI6LayoutEEEEEvPT_DpOT0_, symObjAddr: 0x1D3E0, symBinAddr: 0x1000208E4, symSize: 0x74 }
  - { offset: 0x3C624, size: 0x8, addend: 0x0, symName: __ZN11RotateEventC1ENSt3__110shared_ptrI6LayoutEE, symObjAddr: 0x1D454, symBinAddr: 0x100020958, symSize: 0x34 }
  - { offset: 0x3C65D, size: 0x8, addend: 0x0, symName: __ZN11RotateEventC2ENSt3__110shared_ptrI6LayoutEE, symObjAddr: 0x1D488, symBinAddr: 0x10002098C, symSize: 0x54 }
  - { offset: 0x3C696, size: 0x8, addend: 0x0, symName: __ZN11RotateEvent6handleEv, symObjAddr: 0x1D4DC, symBinAddr: 0x1000209E0, symSize: 0x94 }
  - { offset: 0x3C6D8, size: 0x8, addend: 0x0, symName: __ZNSt3__16vectorINS_10shared_ptrI7ElementEENS_9allocatorIS3_EEEixB8ne180100Em, symObjAddr: 0x1D570, symBinAddr: 0x100020A74, symSize: 0x24 }
  - { offset: 0x3C70F, size: 0x8, addend: 0x0, symName: __ZNSt3__120__shared_ptr_emplaceI11RotateEventNS_9allocatorIS1_EEE8_StorageD2B8ne180100Ev, symObjAddr: 0x1D594, symBinAddr: 0x100020A98, symSize: 0x2C }
  - { offset: 0x3C739, size: 0x8, addend: 0x0, symName: __ZNSt3__120__shared_ptr_emplaceI11RotateEventNS_9allocatorIS1_EEED2Ev, symObjAddr: 0x1D5C0, symBinAddr: 0x100020AC4, symSize: 0x48 }
  - { offset: 0x3C765, size: 0x8, addend: 0x0, symName: __ZNSt3__120__shared_ptr_emplaceI11RotateEventNS_9allocatorIS1_EEE21__on_zero_shared_implB8ne180100IS3_Li0EEEvv, symObjAddr: 0x1D608, symBinAddr: 0x100020B0C, symSize: 0x44 }
  - { offset: 0x3C7B5, size: 0x8, addend: 0x0, symName: __ZNSt3__116allocator_traitsINS_9allocatorI11RotateEventEEE7destroyB8ne180100IS2_vEEvRS3_PT_, symObjAddr: 0x1D64C, symBinAddr: 0x100020B50, symSize: 0x2C }
  - { offset: 0x3C7F2, size: 0x8, addend: 0x0, symName: __ZNSt3__19allocatorI11RotateEventE7destroyB8ne180100EPS1_, symObjAddr: 0x1D678, symBinAddr: 0x100020B7C, symSize: 0x28 }
  - { offset: 0x3C826, size: 0x8, addend: 0x0, symName: __ZN11RotateEventD1Ev, symObjAddr: 0x1D6A0, symBinAddr: 0x100020BA4, symSize: 0x2C }
  - { offset: 0x3C852, size: 0x8, addend: 0x0, symName: __ZN11RotateEventD2Ev, symObjAddr: 0x1D6CC, symBinAddr: 0x100020BD0, symSize: 0x40 }
  - { offset: 0x3C87E, size: 0x8, addend: 0x0, symName: __ZNSt3__116allocator_traitsINS_9allocatorINS_20__shared_ptr_emplaceI11RotateEventNS1_IS3_EEEEEEE10deallocateB8ne180100ERS6_PS5_m, symObjAddr: 0x1D70C, symBinAddr: 0x100020C10, symSize: 0x34 }
  - { offset: 0x3C8C0, size: 0x8, addend: 0x0, symName: __ZNSt3__114pointer_traitsIPNS_20__shared_ptr_emplaceI11RotateEventNS_9allocatorIS2_EEEEE10pointer_toB8ne180100ERS5_, symObjAddr: 0x1D740, symBinAddr: 0x100020C44, symSize: 0x14 }
  - { offset: 0x3C8E3, size: 0x8, addend: 0x0, symName: __ZNSt3__19allocatorINS_20__shared_ptr_emplaceI11RotateEventNS0_IS2_EEEEE10deallocateB8ne180100EPS4_m, symObjAddr: 0x1D754, symBinAddr: 0x100020C58, symSize: 0x44 }
  - { offset: 0x3C925, size: 0x8, addend: 0x0, symName: __ZNSt3__110shared_ptrI11RotateEventEC1B8ne180100Ev, symObjAddr: 0x1D798, symBinAddr: 0x100020C9C, symSize: 0x2C }
  - { offset: 0x3C94F, size: 0x8, addend: 0x0, symName: __ZNSt3__110shared_ptrI11RotateEventE18__enable_weak_thisB8ne180100Ez, symObjAddr: 0x1D7C4, symBinAddr: 0x100020CC8, symSize: 0x10 }
  - { offset: 0x3C976, size: 0x8, addend: 0x0, symName: __ZNSt3__110shared_ptrI11RotateEventEC2B8ne180100Ev, symObjAddr: 0x1D7D4, symBinAddr: 0x100020CD8, symSize: 0x1C }
  - { offset: 0x3C9A0, size: 0x8, addend: 0x0, symName: __ZNSt3__120__shared_ptr_emplaceI11RotateEventNS_9allocatorIS1_EEE8_Storage10__get_elemB8ne180100Ev, symObjAddr: 0x1D7F0, symBinAddr: 0x100020CF4, symSize: 0x3C }
  - { offset: 0x3C9F3, size: 0x8, addend: 0x0, symName: __ZNSt3__117__compressed_pairINS_9allocatorI11RotateEventEES2_E17__get_second_baseB8ne180100EPS4_, symObjAddr: 0x1D82C, symBinAddr: 0x100020D30, symSize: 0x14 }
  - { offset: 0x3CA16, size: 0x8, addend: 0x0, symName: __ZNSt3__118__allocation_guardINS_9allocatorINS_20__shared_ptr_emplaceI11RotateEventNS1_IS3_EEEEEEED2B8ne180100Ev, symObjAddr: 0x1D840, symBinAddr: 0x100020D44, symSize: 0x2C }
  - { offset: 0x3CA40, size: 0x8, addend: 0x0, symName: __ZNSt3__118__allocation_guardINS_9allocatorINS_20__shared_ptr_emplaceI11RotateEventNS1_IS3_EEEEEEE9__destroyB8ne180100Ev, symObjAddr: 0x1D86C, symBinAddr: 0x100020D70, symSize: 0x4C }
  - { offset: 0x3CA66, size: 0x8, addend: 0x0, symName: __ZNSt3__19allocatorI11RotateEventEC2B8ne180100Ev, symObjAddr: 0x1D8B8, symBinAddr: 0x100020DBC, symSize: 0x2C }
  - { offset: 0x3CA90, size: 0x8, addend: 0x0, symName: __ZNSt3__116__non_trivial_ifILb1ENS_9allocatorI11RotateEventEEEC2B8ne180100Ev, symObjAddr: 0x1D8E4, symBinAddr: 0x100020DE8, symSize: 0x14 }
  - { offset: 0x3CABA, size: 0x8, addend: 0x0, symName: __ZNSt3__110shared_ptrI11RotateEventED2B8ne180100Ev, symObjAddr: 0x1D8F8, symBinAddr: 0x100020DFC, symSize: 0x54 }
  - { offset: 0x3CAE4, size: 0x8, addend: 0x0, symName: __ZNSt3__110shared_ptrI5EventEC2B8ne180100I11RotateEventvEEONS0_IT_EE, symObjAddr: 0x1D94C, symBinAddr: 0x100020E50, symSize: 0x40 }
  - { offset: 0x3CB27, size: 0x8, addend: 0x0, symName: __ZNKSt3__15dequeINS_10shared_ptrI5EventEENS_9allocatorIS3_EEE23__annotate_shrink_frontB8ne180100Emm, symObjAddr: 0x1D9A0, symBinAddr: 0x100020EA4, symSize: 0x18 }
  - { offset: 0x3CB6B, size: 0x8, addend: 0x0, symName: __ZNSt3__15dequeINS_10shared_ptrI5EventEENS_9allocatorIS3_EEE26__maybe_remove_front_spareB8ne180100Eb, symObjAddr: 0x1D9B8, symBinAddr: 0x100020EBC, symSize: 0xEC }
  - { offset: 0x3CBA0, size: 0x8, addend: 0x0, symName: __ZNKSt3__15dequeINS_10shared_ptrI5EventEENS_9allocatorIS3_EEE20__front_spare_blocksB8ne180100Ev, symObjAddr: 0x1DAA4, symBinAddr: 0x100020FA8, symSize: 0x2C }
...
